; Listing generated by Microsoft (R) Optimizing Compiler Version 19.23.28106.4 

	TITLE	D:\Réseau neuronnes - Projet Raven\Réseau\solution_lab_apprentissage_a_partir_bot\solution_lab_apprentissage_a_partir_bot\Buckland_Chapter7 to 10_Raven_apprentissage\CData.cpp
	.686P
	.XMM
	include listing.inc
	.model	flat

INCLUDELIB LIBCMTD
INCLUDELIB OLDNAMES

CONST	SEGMENT
$SG157947 DB	'invalid argument', 00H
	ORG $+3
$SG157948 DB	'%s', 00H
	ORG $+1
$SG157949 DB	'C:\Program Files (x86)\Microsoft Visual Studio\2019\Comm'
	DB	'unity\VC\Tools\MSVC\14.23.28105\include\xmemory', 00H
$SG157950 DB	'C', 00H, ':', 00H, '\', 00H, 'P', 00H, 'r', 00H, 'o', 00H
	DB	'g', 00H, 'r', 00H, 'a', 00H, 'm', 00H, ' ', 00H, 'F', 00H, 'i'
	DB	00H, 'l', 00H, 'e', 00H, 's', 00H, ' ', 00H, '(', 00H, 'x', 00H
	DB	'8', 00H, '6', 00H, ')', 00H, '\', 00H, 'M', 00H, 'i', 00H, 'c'
	DB	00H, 'r', 00H, 'o', 00H, 's', 00H, 'o', 00H, 'f', 00H, 't', 00H
	DB	' ', 00H, 'V', 00H, 'i', 00H, 's', 00H, 'u', 00H, 'a', 00H, 'l'
	DB	00H, ' ', 00H, 'S', 00H, 't', 00H, 'u', 00H, 'd', 00H, 'i', 00H
	DB	'o', 00H, '\', 00H, '2', 00H, '0', 00H, '1', 00H, '9', 00H, '\'
	DB	00H, 'C', 00H, 'o', 00H, 'm', 00H, 'm', 00H, 'u', 00H, 'n', 00H
	DB	'i', 00H, 't', 00H, 'y', 00H, '\', 00H, 'V', 00H, 'C', 00H, '\'
	DB	00H, 'T', 00H, 'o', 00H, 'o', 00H, 'l', 00H, 's', 00H, '\', 00H
	DB	'M', 00H, 'S', 00H, 'V', 00H, 'C', 00H, '\', 00H, '1', 00H, '4'
	DB	00H, '.', 00H, '2', 00H, '3', 00H, '.', 00H, '2', 00H, '8', 00H
	DB	'1', 00H, '0', 00H, '5', 00H, '\', 00H, 'i', 00H, 'n', 00H, 'c'
	DB	00H, 'l', 00H, 'u', 00H, 'd', 00H, 'e', 00H, '\', 00H, 'x', 00H
	DB	'm', 00H, 'e', 00H, 'm', 00H, 'o', 00H, 'r', 00H, 'y', 00H, 00H
	DB	00H
$SG157951 DB	's', 00H, 't', 00H, 'd', 00H, ':', 00H, ':', 00H, '_', 00H
	DB	'A', 00H, 'l', 00H, 'l', 00H, 'o', 00H, 'c', 00H, 'a', 00H, 't'
	DB	00H, 'e', 00H, '_', 00H, 'm', 00H, 'a', 00H, 'n', 00H, 'u', 00H
	DB	'a', 00H, 'l', 00H, 'l', 00H, 'y', 00H, '_', 00H, 'v', 00H, 'e'
	DB	00H, 'c', 00H, 't', 00H, 'o', 00H, 'r', 00H, '_', 00H, 'a', 00H
	DB	'l', 00H, 'i', 00H, 'g', 00H, 'n', 00H, 'e', 00H, 'd', 00H, 00H
	DB	00H
	ORG $+2
$SG157952 DB	'"', 00H, 'i', 00H, 'n', 00H, 'v', 00H, 'a', 00H, 'l', 00H
	DB	'i', 00H, 'd', 00H, ' ', 00H, 'a', 00H, 'r', 00H, 'g', 00H, 'u'
	DB	00H, 'm', 00H, 'e', 00H, 'n', 00H, 't', 00H, '"', 00H, 00H, 00H
	ORG $+2
$SG152816 DB	'Please check Input & Target Data !', 00H
CONST	ENDS
PUBLIC	?__empty_global_delete@@YAXPAX@Z		; __empty_global_delete
PUBLIC	?__empty_global_delete@@YAXPAXI@Z		; __empty_global_delete
PUBLIC	??2@YAPAXIPAX@Z					; operator new
PUBLIC	?max@?$numeric_limits@H@std@@SAHXZ		; std::numeric_limits<int>::max
PUBLIC	?min@?$numeric_limits@M@std@@SAMXZ		; std::numeric_limits<float>::min
PUBLIC	?max@?$numeric_limits@M@std@@SAMXZ		; std::numeric_limits<float>::max
PUBLIC	?min@?$numeric_limits@N@std@@SANXZ		; std::numeric_limits<double>::min
PUBLIC	?max@?$numeric_limits@N@std@@SANXZ		; std::numeric_limits<double>::max
PUBLIC	??0exception@std@@QAE@QBD@Z			; std::exception::exception
PUBLIC	??0exception@std@@QAE@QBDH@Z			; std::exception::exception
PUBLIC	??0exception@std@@QAE@ABV01@@Z			; std::exception::exception
PUBLIC	??1exception@std@@UAE@XZ			; std::exception::~exception
PUBLIC	?what@exception@std@@UBEPBDXZ			; std::exception::what
PUBLIC	??_Gexception@std@@UAEPAXI@Z			; std::exception::`scalar deleting destructor'
PUBLIC	??0bad_alloc@std@@AAE@QBD@Z			; std::bad_alloc::bad_alloc
PUBLIC	??1bad_alloc@std@@UAE@XZ			; std::bad_alloc::~bad_alloc
PUBLIC	??0bad_alloc@std@@QAE@ABV01@@Z			; std::bad_alloc::bad_alloc
PUBLIC	??_Gbad_alloc@std@@UAEPAXI@Z			; std::bad_alloc::`scalar deleting destructor'
PUBLIC	??0bad_array_new_length@std@@QAE@XZ		; std::bad_array_new_length::bad_array_new_length
PUBLIC	??1bad_array_new_length@std@@UAE@XZ		; std::bad_array_new_length::~bad_array_new_length
PUBLIC	??0bad_array_new_length@std@@QAE@ABV01@@Z	; std::bad_array_new_length::bad_array_new_length
PUBLIC	??_Gbad_array_new_length@std@@UAEPAXI@Z		; std::bad_array_new_length::`scalar deleting destructor'
PUBLIC	?_Throw_bad_array_new_length@std@@YAXXZ		; std::_Throw_bad_array_new_length
PUBLIC	?_Allocate@_Default_allocate_traits@std@@SAPAXI@Z ; std::_Default_allocate_traits::_Allocate
PUBLIC	?_Adjust_manually_vector_aligned@std@@YAXAAPAXAAI@Z ; std::_Adjust_manually_vector_aligned
PUBLIC	??0_Container_proxy@std@@QAE@PAU_Container_base12@1@@Z ; std::_Container_proxy::_Container_proxy
PUBLIC	??0_Container_base12@std@@QAE@XZ		; std::_Container_base12::_Container_base12
PUBLIC	?_Orphan_all@_Container_base12@std@@QAEXXZ	; std::_Container_base12::_Orphan_all
PUBLIC	?_Swap_proxy_and_iterators@_Container_base12@std@@QAEXAAU12@@Z ; std::_Container_base12::_Swap_proxy_and_iterators
PUBLIC	?_Release@_Basic_container_proxy_ptr12@std@@QAEXXZ ; std::_Basic_container_proxy_ptr12::_Release
PUBLIC	?deallocate@?$allocator@N@std@@QAEXQANI@Z	; std::allocator<double>::deallocate
PUBLIC	?allocate@?$allocator@N@std@@QAEPANI@Z		; std::allocator<double>::allocate
PUBLIC	?select_on_container_copy_construction@?$_Default_allocator_traits@V?$allocator@N@std@@@std@@SA?AV?$allocator@N@2@ABV32@@Z ; std::_Default_allocator_traits<std::allocator<double> >::select_on_container_copy_construction
PUBLIC	??0?$vector@NV?$allocator@N@std@@@std@@QAE@ABV01@@Z ; std::vector<double,std::allocator<double> >::vector<double,std::allocator<double> >
PUBLIC	?_Move_construct@?$vector@NV?$allocator@N@std@@@std@@AAEXAAV12@U?$integral_constant@_N$00@2@@Z ; std::vector<double,std::allocator<double> >::_Move_construct
PUBLIC	??0?$vector@NV?$allocator@N@std@@@std@@QAE@$$QAV01@@Z ; std::vector<double,std::allocator<double> >::vector<double,std::allocator<double> >
PUBLIC	??1?$vector@NV?$allocator@N@std@@@std@@QAE@XZ	; std::vector<double,std::allocator<double> >::~vector<double,std::allocator<double> >
PUBLIC	?size@?$vector@NV?$allocator@N@std@@@std@@QBEIXZ ; std::vector<double,std::allocator<double> >::size
PUBLIC	??A?$vector@NV?$allocator@N@std@@@std@@QAEAANI@Z ; std::vector<double,std::allocator<double> >::operator[]
PUBLIC	?_Destroy@?$vector@NV?$allocator@N@std@@@std@@AAEXPAN0@Z ; std::vector<double,std::allocator<double> >::_Destroy
PUBLIC	?_Buy_raw@?$vector@NV?$allocator@N@std@@@std@@AAEXI@Z ; std::vector<double,std::allocator<double> >::_Buy_raw
PUBLIC	?_Tidy@?$vector@NV?$allocator@N@std@@@std@@AAEXXZ ; std::vector<double,std::allocator<double> >::_Tidy
PUBLIC	?_Getal@?$vector@NV?$allocator@N@std@@@std@@AAEAAV?$allocator@N@2@XZ ; std::vector<double,std::allocator<double> >::_Getal
PUBLIC	?_Getal@?$vector@NV?$allocator@N@std@@@std@@ABEABV?$allocator@N@2@XZ ; std::vector<double,std::allocator<double> >::_Getal
PUBLIC	??0?$_Vector_val@U?$_Simple_types@N@std@@@std@@QAE@XZ ; std::_Vector_val<std::_Simple_types<double> >::_Vector_val<std::_Simple_types<double> >
PUBLIC	?_Take_contents@?$_Vector_val@U?$_Simple_types@N@std@@@std@@QAEXAAV12@@Z ; std::_Vector_val<std::_Simple_types<double> >::_Take_contents
PUBLIC	?_Get_first@?$_Compressed_pair@V?$allocator@N@std@@V?$_Vector_val@U?$_Simple_types@N@std@@@2@$00@std@@QAEAAV?$allocator@N@2@XZ ; std::_Compressed_pair<std::allocator<double>,std::_Vector_val<std::_Simple_types<double> >,1>::_Get_first
PUBLIC	?_Get_first@?$_Compressed_pair@V?$allocator@N@std@@V?$_Vector_val@U?$_Simple_types@N@std@@@2@$00@std@@QBEABV?$allocator@N@2@XZ ; std::_Compressed_pair<std::allocator<double>,std::_Vector_val<std::_Simple_types<double> >,1>::_Get_first
PUBLIC	??_G?$vector@NV?$allocator@N@std@@@std@@QAEPAXI@Z ; std::vector<double,std::allocator<double> >::`scalar deleting destructor'
PUBLIC	?deallocate@?$allocator@V?$vector@NV?$allocator@N@std@@@std@@@std@@QAEXQAV?$vector@NV?$allocator@N@std@@@2@I@Z ; std::allocator<std::vector<double,std::allocator<double> > >::deallocate
PUBLIC	?allocate@?$allocator@V?$vector@NV?$allocator@N@std@@@std@@@std@@QAEPAV?$vector@NV?$allocator@N@std@@@2@I@Z ; std::allocator<std::vector<double,std::allocator<double> > >::allocate
PUBLIC	?max_size@?$_Default_allocator_traits@V?$allocator@V?$vector@NV?$allocator@N@std@@@std@@@std@@@std@@SAIABV?$allocator@V?$vector@NV?$allocator@N@std@@@std@@@2@@Z ; std::_Default_allocator_traits<std::allocator<std::vector<double,std::allocator<double> > > >::max_size
PUBLIC	?push_back@?$vector@V?$vector@NV?$allocator@N@std@@@std@@V?$allocator@V?$vector@NV?$allocator@N@std@@@std@@@2@@std@@QAEXABV?$vector@NV?$allocator@N@std@@@2@@Z ; std::vector<std::vector<double,std::allocator<double> >,std::allocator<std::vector<double,std::allocator<double> > > >::push_back
PUBLIC	?size@?$vector@V?$vector@NV?$allocator@N@std@@@std@@V?$allocator@V?$vector@NV?$allocator@N@std@@@std@@@2@@std@@QBEIXZ ; std::vector<std::vector<double,std::allocator<double> >,std::allocator<std::vector<double,std::allocator<double> > > >::size
PUBLIC	?max_size@?$vector@V?$vector@NV?$allocator@N@std@@@std@@V?$allocator@V?$vector@NV?$allocator@N@std@@@std@@@2@@std@@QBEIXZ ; std::vector<std::vector<double,std::allocator<double> >,std::allocator<std::vector<double,std::allocator<double> > > >::max_size
PUBLIC	?capacity@?$vector@V?$vector@NV?$allocator@N@std@@@std@@V?$allocator@V?$vector@NV?$allocator@N@std@@@std@@@2@@std@@QBEIXZ ; std::vector<std::vector<double,std::allocator<double> >,std::allocator<std::vector<double,std::allocator<double> > > >::capacity
PUBLIC	??A?$vector@V?$vector@NV?$allocator@N@std@@@std@@V?$allocator@V?$vector@NV?$allocator@N@std@@@std@@@2@@std@@QAEAAV?$vector@NV?$allocator@N@std@@@1@I@Z ; std::vector<std::vector<double,std::allocator<double> >,std::allocator<std::vector<double,std::allocator<double> > > >::operator[]
PUBLIC	?_Umove@?$vector@V?$vector@NV?$allocator@N@std@@@std@@V?$allocator@V?$vector@NV?$allocator@N@std@@@std@@@2@@std@@AAEPAV?$vector@NV?$allocator@N@std@@@2@PAV32@00@Z ; std::vector<std::vector<double,std::allocator<double> >,std::allocator<std::vector<double,std::allocator<double> > > >::_Umove
PUBLIC	?_Umove_if_noexcept1@?$vector@V?$vector@NV?$allocator@N@std@@@std@@V?$allocator@V?$vector@NV?$allocator@N@std@@@std@@@2@@std@@AAEXPAV?$vector@NV?$allocator@N@std@@@2@00U?$integral_constant@_N$00@2@@Z ; std::vector<std::vector<double,std::allocator<double> >,std::allocator<std::vector<double,std::allocator<double> > > >::_Umove_if_noexcept1
PUBLIC	?_Umove_if_noexcept@?$vector@V?$vector@NV?$allocator@N@std@@@std@@V?$allocator@V?$vector@NV?$allocator@N@std@@@std@@@2@@std@@AAEXPAV?$vector@NV?$allocator@N@std@@@2@00@Z ; std::vector<std::vector<double,std::allocator<double> >,std::allocator<std::vector<double,std::allocator<double> > > >::_Umove_if_noexcept
PUBLIC	?_Destroy@?$vector@V?$vector@NV?$allocator@N@std@@@std@@V?$allocator@V?$vector@NV?$allocator@N@std@@@std@@@2@@std@@AAEXPAV?$vector@NV?$allocator@N@std@@@2@0@Z ; std::vector<std::vector<double,std::allocator<double> >,std::allocator<std::vector<double,std::allocator<double> > > >::_Destroy
PUBLIC	?_Calculate_growth@?$vector@V?$vector@NV?$allocator@N@std@@@std@@V?$allocator@V?$vector@NV?$allocator@N@std@@@std@@@2@@std@@ABEII@Z ; std::vector<std::vector<double,std::allocator<double> >,std::allocator<std::vector<double,std::allocator<double> > > >::_Calculate_growth
PUBLIC	?_Change_array@?$vector@V?$vector@NV?$allocator@N@std@@@std@@V?$allocator@V?$vector@NV?$allocator@N@std@@@std@@@2@@std@@AAEXQAV?$vector@NV?$allocator@N@std@@@2@II@Z ; std::vector<std::vector<double,std::allocator<double> >,std::allocator<std::vector<double,std::allocator<double> > > >::_Change_array
PUBLIC	?_Xlength@?$vector@V?$vector@NV?$allocator@N@std@@@std@@V?$allocator@V?$vector@NV?$allocator@N@std@@@std@@@2@@std@@CAXXZ ; std::vector<std::vector<double,std::allocator<double> >,std::allocator<std::vector<double,std::allocator<double> > > >::_Xlength
PUBLIC	?_Orphan_range@?$vector@V?$vector@NV?$allocator@N@std@@@std@@V?$allocator@V?$vector@NV?$allocator@N@std@@@std@@@2@@std@@ABEXPAV?$vector@NV?$allocator@N@std@@@2@0@Z ; std::vector<std::vector<double,std::allocator<double> >,std::allocator<std::vector<double,std::allocator<double> > > >::_Orphan_range
PUBLIC	?_Getal@?$vector@V?$vector@NV?$allocator@N@std@@@std@@V?$allocator@V?$vector@NV?$allocator@N@std@@@std@@@2@@std@@AAEAAV?$allocator@V?$vector@NV?$allocator@N@std@@@std@@@2@XZ ; std::vector<std::vector<double,std::allocator<double> >,std::allocator<std::vector<double,std::allocator<double> > > >::_Getal
PUBLIC	?_Getal@?$vector@V?$vector@NV?$allocator@N@std@@@std@@V?$allocator@V?$vector@NV?$allocator@N@std@@@std@@@2@@std@@ABEABV?$allocator@V?$vector@NV?$allocator@N@std@@@std@@@2@XZ ; std::vector<std::vector<double,std::allocator<double> >,std::allocator<std::vector<double,std::allocator<double> > > >::_Getal
PUBLIC	?_Get_first@?$_Compressed_pair@V?$allocator@V?$vector@NV?$allocator@N@std@@@std@@@std@@V?$_Vector_val@U?$_Simple_types@V?$vector@NV?$allocator@N@std@@@std@@@std@@@2@$00@std@@QAEAAV?$allocator@V?$vector@NV?$allocator@N@std@@@std@@@2@XZ ; std::_Compressed_pair<std::allocator<std::vector<double,std::allocator<double> > >,std::_Vector_val<std::_Simple_types<std::vector<double,std::allocator<double> > > >,1>::_Get_first
PUBLIC	?_Get_first@?$_Compressed_pair@V?$allocator@V?$vector@NV?$allocator@N@std@@@std@@@std@@V?$_Vector_val@U?$_Simple_types@V?$vector@NV?$allocator@N@std@@@std@@@std@@@2@$00@std@@QBEABV?$allocator@V?$vector@NV?$allocator@N@std@@@std@@@2@XZ ; std::_Compressed_pair<std::allocator<std::vector<double,std::allocator<double> > >,std::_Vector_val<std::_Simple_types<std::vector<double,std::allocator<double> > > >,1>::_Get_first
PUBLIC	?AddData@CData@@QAEXAAV?$vector@NV?$allocator@N@std@@@std@@0@Z ; CData::AddData
PUBLIC	?GetNbShooting@CData@@QAENXZ			; CData::GetNbShooting
PUBLIC	??$emplace_back@ABV?$vector@NV?$allocator@N@std@@@std@@@?$vector@V?$vector@NV?$allocator@N@std@@@std@@V?$allocator@V?$vector@NV?$allocator@N@std@@@std@@@2@@std@@QAE@ABV?$vector@NV?$allocator@N@std@@@1@@Z ; std::vector<std::vector<double,std::allocator<double> >,std::allocator<std::vector<double,std::allocator<double> > > >::emplace_back<std::vector<double,std::allocator<double> > const &>
PUBLIC	??$forward@ABV?$vector@NV?$allocator@N@std@@@std@@@std@@YAABV?$vector@NV?$allocator@N@std@@@0@ABV10@@Z ; std::forward<std::vector<double,std::allocator<double> > const &>
PUBLIC	??$_Emplace_back_with_unused_capacity@ABV?$vector@NV?$allocator@N@std@@@std@@@?$vector@V?$vector@NV?$allocator@N@std@@@std@@V?$allocator@V?$vector@NV?$allocator@N@std@@@std@@@2@@std@@AAE@ABV?$vector@NV?$allocator@N@std@@@1@@Z ; std::vector<std::vector<double,std::allocator<double> >,std::allocator<std::vector<double,std::allocator<double> > > >::_Emplace_back_with_unused_capacity<std::vector<double,std::allocator<double> > const &>
PUBLIC	??$_Unfancy@V?$vector@NV?$allocator@N@std@@@std@@@std@@YAPAV?$vector@NV?$allocator@N@std@@@0@PAV10@@Z ; std::_Unfancy<std::vector<double,std::allocator<double> > >
PUBLIC	??$construct@V?$vector@NV?$allocator@N@std@@@std@@ABV12@@?$_Default_allocator_traits@V?$allocator@V?$vector@NV?$allocator@N@std@@@std@@@std@@@std@@SAXAAV?$allocator@V?$vector@NV?$allocator@N@std@@@std@@@1@QAV?$vector@NV?$allocator@N@std@@@1@ABV31@@Z ; std::_Default_allocator_traits<std::allocator<std::vector<double,std::allocator<double> > > >::construct<std::vector<double,std::allocator<double> >,std::vector<double,std::allocator<double> > const &>
PUBLIC	??$_Emplace_reallocate@ABV?$vector@NV?$allocator@N@std@@@std@@@?$vector@V?$vector@NV?$allocator@N@std@@@std@@V?$allocator@V?$vector@NV?$allocator@N@std@@@std@@@2@@std@@QAEPAV?$vector@NV?$allocator@N@std@@@1@QAV21@ABV21@@Z ; std::vector<std::vector<double,std::allocator<double> >,std::allocator<std::vector<double,std::allocator<double> > > >::_Emplace_reallocate<std::vector<double,std::allocator<double> > const &>
PUBLIC	?allocate@?$allocator@U_Container_proxy@std@@@std@@QAEPAU_Container_proxy@2@I@Z ; std::allocator<std::_Container_proxy>::allocate
PUBLIC	??$exchange@PAU_Container_proxy@std@@$$T@std@@YAPAU_Container_proxy@0@AAPAU10@$$QA$$T@Z ; std::exchange<std::_Container_proxy *,std::nullptr_t>
PUBLIC	??$_Delete_plain_internal@V?$allocator@U_Container_proxy@std@@@std@@@std@@YAXAAV?$allocator@U_Container_proxy@std@@@0@QAU_Container_proxy@0@@Z ; std::_Delete_plain_internal<std::allocator<std::_Container_proxy> >
PUBLIC	??0?$_Container_proxy_ptr12@V?$allocator@U_Container_proxy@std@@@std@@@std@@QAE@AAV?$allocator@U_Container_proxy@std@@@1@AAU_Container_base12@1@@Z ; std::_Container_proxy_ptr12<std::allocator<std::_Container_proxy> >::_Container_proxy_ptr12<std::allocator<std::_Container_proxy> >
PUBLIC	??1?$_Container_proxy_ptr12@V?$allocator@U_Container_proxy@std@@@std@@@std@@QAE@XZ ; std::_Container_proxy_ptr12<std::allocator<std::_Container_proxy> >::~_Container_proxy_ptr12<std::allocator<std::_Container_proxy> >
PUBLIC	??$_Alloc_proxy@V?$allocator@U_Container_proxy@std@@@std@@@_Container_base12@std@@QAEX$$QAV?$allocator@U_Container_proxy@std@@@1@@Z ; std::_Container_base12::_Alloc_proxy<std::allocator<std::_Container_proxy> >
PUBLIC	??$_Min_value@I@std@@YAABIABI0@Z		; std::_Min_value<unsigned int>
PUBLIC	??$_Unfancy@U_Container_proxy@std@@@std@@YAPAU_Container_proxy@0@PAU10@@Z ; std::_Unfancy<std::_Container_proxy>
PUBLIC	??$addressof@U_Container_base12@std@@@std@@YAPAU_Container_base12@0@AAU10@@Z ; std::addressof<std::_Container_base12>
PUBLIC	??$_Construct_in_place@U_Container_proxy@std@@PAU_Container_base12@2@@std@@YAXAAU_Container_proxy@0@$$QAPAU_Container_base12@0@@Z ; std::_Construct_in_place<std::_Container_proxy,std::_Container_base12 *>
PUBLIC	??$_Allocate@$07U_Default_allocate_traits@std@@$0A@@std@@YAPAXI@Z ; std::_Allocate<8,std::_Default_allocate_traits,0>
PUBLIC	??$_Deallocate@$07$0A@@std@@YAXPAXI@Z		; std::_Deallocate<8,0>
PUBLIC	??$_Get_size_of_n@$07@std@@YAII@Z		; std::_Get_size_of_n<8>
PUBLIC	??$_Destroy_range@V?$allocator@V?$vector@NV?$allocator@N@std@@@std@@@std@@@std@@YAXPAV?$vector@NV?$allocator@N@std@@@0@QAV10@AAV?$allocator@V?$vector@NV?$allocator@N@std@@@std@@@0@@Z ; std::_Destroy_range<std::allocator<std::vector<double,std::allocator<double> > > >
PUBLIC	??$_Get_size_of_n@$0BA@@std@@YAII@Z		; std::_Get_size_of_n<16>
PUBLIC	??$_Deallocate_plain@V?$allocator@U_Container_proxy@std@@@std@@@std@@YAXAAV?$allocator@U_Container_proxy@std@@@0@QAU_Container_proxy@0@@Z ; std::_Deallocate_plain<std::allocator<std::_Container_proxy> >
PUBLIC	??$addressof@U_Container_proxy@std@@@std@@YAPAU_Container_proxy@0@AAU10@@Z ; std::addressof<std::_Container_proxy>
PUBLIC	??$forward@PAU_Container_base12@std@@@std@@YA$$QAPAU_Container_base12@0@AAPAU10@@Z ; std::forward<std::_Container_base12 *>
PUBLIC	??$_Allocate_manually_vector_aligned@U_Default_allocate_traits@std@@@std@@YAPAXI@Z ; std::_Allocate_manually_vector_aligned<std::_Default_allocate_traits>
PUBLIC	??$destroy@V?$vector@NV?$allocator@N@std@@@std@@@?$_Default_allocator_traits@V?$allocator@V?$vector@NV?$allocator@N@std@@@std@@@std@@@std@@SAXAAV?$allocator@V?$vector@NV?$allocator@N@std@@@std@@@1@QAV?$vector@NV?$allocator@N@std@@@1@@Z ; std::_Default_allocator_traits<std::allocator<std::vector<double,std::allocator<double> > > >::destroy<std::vector<double,std::allocator<double> > >
PUBLIC	??$_Uninitialized_move@PAV?$vector@NV?$allocator@N@std@@@std@@V?$allocator@V?$vector@NV?$allocator@N@std@@@std@@@2@@std@@YAPAV?$vector@NV?$allocator@N@std@@@0@QAV10@0PAV10@AAV?$allocator@V?$vector@NV?$allocator@N@std@@@std@@@0@@Z ; std::_Uninitialized_move<std::vector<double,std::allocator<double> > *,std::allocator<std::vector<double,std::allocator<double> > > >
PUBLIC	??$?0V?$allocator@N@std@@$$V@?$_Compressed_pair@V?$allocator@N@std@@V?$_Vector_val@U?$_Simple_types@N@std@@@2@$00@std@@QAE@U_One_then_variadic_args_t@1@$$QAV?$allocator@N@1@@Z ; std::_Compressed_pair<std::allocator<double>,std::_Vector_val<std::_Simple_types<double> >,1>::_Compressed_pair<std::allocator<double>,std::_Vector_val<std::_Simple_types<double> >,1><std::allocator<double> >
PUBLIC	??$?0N@?$allocator@U_Container_proxy@std@@@std@@QAE@ABV?$allocator@N@1@@Z ; std::allocator<std::_Container_proxy>::allocator<std::_Container_proxy><double>
PUBLIC	??1?$_Tidy_guard@V?$vector@NV?$allocator@N@std@@@std@@@std@@QAE@XZ ; std::_Tidy_guard<std::vector<double,std::allocator<double> > >::~_Tidy_guard<std::vector<double,std::allocator<double> > >
PUBLIC	??$_Ucopy@PAN@?$vector@NV?$allocator@N@std@@@std@@AAEPANPAN00@Z ; std::vector<double,std::allocator<double> >::_Ucopy<double *>
PUBLIC	??$_Destroy_range@V?$allocator@N@std@@@std@@YAXPANQANAAV?$allocator@N@0@@Z ; std::_Destroy_range<std::allocator<double> >
PUBLIC	?deallocate@?$_Default_allocator_traits@V?$allocator@U_Container_proxy@std@@@std@@@std@@SAXAAV?$allocator@U_Container_proxy@std@@@2@QAU_Container_proxy@2@I@Z ; std::_Default_allocator_traits<std::allocator<std::_Container_proxy> >::deallocate
PUBLIC	??$_Get_unwrapped@V?$vector@NV?$allocator@N@std@@@std@@@std@@YAPAV?$vector@NV?$allocator@N@std@@@0@QAV10@@Z ; std::_Get_unwrapped<std::vector<double,std::allocator<double> > >
PUBLIC	??0?$_Uninitialized_backout_al@V?$allocator@V?$vector@NV?$allocator@N@std@@@std@@@std@@@std@@QAE@PAV?$vector@NV?$allocator@N@std@@@1@AAV?$allocator@V?$vector@NV?$allocator@N@std@@@std@@@1@@Z ; std::_Uninitialized_backout_al<std::allocator<std::vector<double,std::allocator<double> > > >::_Uninitialized_backout_al<std::allocator<std::vector<double,std::allocator<double> > > >
PUBLIC	??1?$_Uninitialized_backout_al@V?$allocator@V?$vector@NV?$allocator@N@std@@@std@@@std@@@std@@QAE@XZ ; std::_Uninitialized_backout_al<std::allocator<std::vector<double,std::allocator<double> > > >::~_Uninitialized_backout_al<std::allocator<std::vector<double,std::allocator<double> > > >
PUBLIC	?_Release@?$_Uninitialized_backout_al@V?$allocator@V?$vector@NV?$allocator@N@std@@@std@@@std@@@std@@QAEPAV?$vector@NV?$allocator@N@std@@@2@XZ ; std::_Uninitialized_backout_al<std::allocator<std::vector<double,std::allocator<double> > > >::_Release
PUBLIC	??$move@AAV?$vector@NV?$allocator@N@std@@@std@@@std@@YA$$QAV?$vector@NV?$allocator@N@std@@@0@AAV10@@Z ; std::move<std::vector<double,std::allocator<double> > &>
PUBLIC	??$_Emplace_back@V?$vector@NV?$allocator@N@std@@@std@@@?$_Uninitialized_backout_al@V?$allocator@V?$vector@NV?$allocator@N@std@@@std@@@std@@@std@@QAEX$$QAV?$vector@NV?$allocator@N@std@@@1@@Z ; std::_Uninitialized_backout_al<std::allocator<std::vector<double,std::allocator<double> > > >::_Emplace_back<std::vector<double,std::allocator<double> > >
PUBLIC	??$forward@V?$allocator@N@std@@@std@@YA$$QAV?$allocator@N@0@AAV10@@Z ; std::forward<std::allocator<double> >
PUBLIC	??$_Uninitialized_copy@PANV?$allocator@N@std@@@std@@YAPANQAN0PANAAV?$allocator@N@0@@Z ; std::_Uninitialized_copy<double *,std::allocator<double> >
PUBLIC	??$forward@V?$vector@NV?$allocator@N@std@@@std@@@std@@YA$$QAV?$vector@NV?$allocator@N@std@@@0@AAV10@@Z ; std::forward<std::vector<double,std::allocator<double> > >
PUBLIC	??$construct@V?$vector@NV?$allocator@N@std@@@std@@V12@@?$_Default_allocator_traits@V?$allocator@V?$vector@NV?$allocator@N@std@@@std@@@std@@@std@@SAXAAV?$allocator@V?$vector@NV?$allocator@N@std@@@std@@@1@QAV?$vector@NV?$allocator@N@std@@@1@$$QAV31@@Z ; std::_Default_allocator_traits<std::allocator<std::vector<double,std::allocator<double> > > >::construct<std::vector<double,std::allocator<double> >,std::vector<double,std::allocator<double> > >
PUBLIC	??$_Get_unwrapped@N@std@@YAPANQAN@Z		; std::_Get_unwrapped<double>
PUBLIC	??$_Unfancy@N@std@@YAPANPAN@Z			; std::_Unfancy<double>
PUBLIC	??$_Copy_memmove@PANPAN@std@@YAPANPAN00@Z	; std::_Copy_memmove<double *,double *>
PUBLIC	??$move@AAV?$allocator@N@std@@@std@@YA$$QAV?$allocator@N@0@AAV10@@Z ; std::move<std::allocator<double> &>
PUBLIC	??_7exception@std@@6B@				; std::exception::`vftable'
PUBLIC	??_C@_0BC@EOODALEL@Unknown?5exception@		; `string'
PUBLIC	??_7bad_alloc@std@@6B@				; std::bad_alloc::`vftable'
PUBLIC	??_7bad_array_new_length@std@@6B@		; std::bad_array_new_length::`vftable'
PUBLIC	??_C@_0BF@KINCDENJ@bad?5array?5new?5length@	; `string'
PUBLIC	__TI3?AVbad_array_new_length@std@@
PUBLIC	__CTA3?AVbad_array_new_length@std@@
PUBLIC	??_R0?AVbad_array_new_length@std@@@8		; std::bad_array_new_length `RTTI Type Descriptor'
PUBLIC	__CT??_R0?AVbad_array_new_length@std@@@8??0bad_array_new_length@std@@QAE@ABV01@@Z12
PUBLIC	??_R0?AVbad_alloc@std@@@8			; std::bad_alloc `RTTI Type Descriptor'
PUBLIC	__CT??_R0?AVbad_alloc@std@@@8??0bad_alloc@std@@QAE@ABV01@@Z12
PUBLIC	??_R0?AVexception@std@@@8			; std::exception `RTTI Type Descriptor'
PUBLIC	__CT??_R0?AVexception@std@@@8??0exception@std@@QAE@ABV01@@Z12
PUBLIC	??_C@_0BB@FCMFBGOM@invalid?5argument@		; `string'
PUBLIC	??_C@_02DKCKIIND@?$CFs@				; `string'
PUBLIC	??_C@_0GI@FJIKDGOA@C?3?2Program?5Files?5?$CIx86?$CJ?2Microsof@ ; `string'
PUBLIC	??_C@_1NA@CDBIFGMM@?$AAC?$AA?3?$AA?2?$AAP?$AAr?$AAo?$AAg?$AAr?$AAa?$AAm?$AA?5?$AAF?$AAi?$AAl?$AAe@ ; `string'
PUBLIC	??_C@_1EK@NIFDJFDG@?$AAs?$AAt?$AAd?$AA?3?$AA?3?$AA_?$AAA?$AAd?$AAj?$AAu?$AAs?$AAt?$AA_?$AAm?$AAa@ ; `string'
PUBLIC	??_C@_1CG@JNLFBNGN@?$AA?$CC?$AAi?$AAn?$AAv?$AAa?$AAl?$AAi?$AAd?$AA?5?$AAa?$AAr?$AAg?$AAu?$AAm?$AAe@ ; `string'
PUBLIC	__TI1?AVexception@std@@
PUBLIC	__CTA1?AVexception@std@@
PUBLIC	??_C@_0BO@PFKOHNJC@vector?5subscript?5out?5of?5range@ ; `string'
PUBLIC	??_C@_0GH@OOPCKGB@C?3?2Program?5Files?5?$CIx86?$CJ?2Microsof@ ; `string'
PUBLIC	??_C@_1MO@NOOOHLI@?$AAC?$AA?3?$AA?2?$AAP?$AAr?$AAo?$AAg?$AAr?$AAa?$AAm?$AA?5?$AAF?$AAi?$AAl?$AAe@ ; `string'
PUBLIC	??_C@_1BEE@BOINOPIE@?$AAs?$AAt?$AAd?$AA?3?$AA?3?$AAv?$AAe?$AAc?$AAt?$AAo?$AAr?$AA?$DM?$AAc?$AAl?$AAa@ ; `string'
PUBLIC	??_C@_1EA@LEKOKFNB@?$AA?$CC?$AAv?$AAe?$AAc?$AAt?$AAo?$AAr?$AA?5?$AAs?$AAu?$AAb?$AAs?$AAc?$AAr?$AAi@ ; `string'
PUBLIC	??_C@_1HO@GLEAPAMD@?$AAs?$AAt?$AAd?$AA?3?$AA?3?$AAv?$AAe?$AAc?$AAt?$AAo?$AAr?$AA?$DM?$AAd?$AAo?$AAu@ ; `string'
PUBLIC	??_C@_0BD@OLBABOEK@vector?$DMT?$DO?5too?5long@	; `string'
PUBLIC	??_R4exception@std@@6B@				; std::exception::`RTTI Complete Object Locator'
PUBLIC	??_R3exception@std@@8				; std::exception::`RTTI Class Hierarchy Descriptor'
PUBLIC	??_R2exception@std@@8				; std::exception::`RTTI Base Class Array'
PUBLIC	??_R1A@?0A@EA@exception@std@@8			; std::exception::`RTTI Base Class Descriptor at (0,-1,0,64)'
PUBLIC	??_R4bad_alloc@std@@6B@				; std::bad_alloc::`RTTI Complete Object Locator'
PUBLIC	??_R3bad_alloc@std@@8				; std::bad_alloc::`RTTI Class Hierarchy Descriptor'
PUBLIC	??_R2bad_alloc@std@@8				; std::bad_alloc::`RTTI Base Class Array'
PUBLIC	??_R1A@?0A@EA@bad_alloc@std@@8			; std::bad_alloc::`RTTI Base Class Descriptor at (0,-1,0,64)'
PUBLIC	??_R4bad_array_new_length@std@@6B@		; std::bad_array_new_length::`RTTI Complete Object Locator'
PUBLIC	??_R3bad_array_new_length@std@@8		; std::bad_array_new_length::`RTTI Class Hierarchy Descriptor'
PUBLIC	??_R2bad_array_new_length@std@@8		; std::bad_array_new_length::`RTTI Base Class Array'
PUBLIC	??_R1A@?0A@EA@bad_array_new_length@std@@8	; std::bad_array_new_length::`RTTI Base Class Descriptor at (0,-1,0,64)'
PUBLIC	__real@0010000000000000
PUBLIC	__real@00800000
PUBLIC	__real@3ff0000000000000
PUBLIC	__real@7f7fffff
PUBLIC	__real@7fefffffffffffff
PUBLIC	__xmm@41f00000000000000000000000000000
EXTRN	??2@YAPAXI@Z:PROC				; operator new
EXTRN	??3@YAXPAXI@Z:PROC				; operator delete
EXTRN	__invalid_parameter:PROC
EXTRN	__CrtDbgReport:PROC
EXTRN	??0_Lockit@std@@QAE@H@Z:PROC			; std::_Lockit::_Lockit
EXTRN	??1_Lockit@std@@QAE@XZ:PROC			; std::_Lockit::~_Lockit
EXTRN	_memmove:PROC
EXTRN	___std_exception_copy:PROC
EXTRN	___std_exception_destroy:PROC
EXTRN	??_Eexception@std@@UAEPAXI@Z:PROC		; std::exception::`vector deleting destructor'
EXTRN	??_Ebad_alloc@std@@UAEPAXI@Z:PROC		; std::bad_alloc::`vector deleting destructor'
EXTRN	??_Ebad_array_new_length@std@@UAEPAXI@Z:PROC	; std::bad_array_new_length::`vector deleting destructor'
EXTRN	?_Xlength_error@std@@YAXPBD@Z:PROC		; std::_Xlength_error
EXTRN	@_RTC_CheckStackVars@8:PROC
EXTRN	@__security_check_cookie@4:PROC
EXTRN	__CxxThrowException@8:PROC
EXTRN	__RTC_CheckEsp:PROC
EXTRN	__RTC_InitBase:PROC
EXTRN	__RTC_Shutdown:PROC
EXTRN	___CxxFrameHandler3:PROC
EXTRN	??_7type_info@@6B@:QWORD			; type_info::`vftable'
EXTRN	___security_cookie:DWORD
EXTRN	__fltused:DWORD
_BSS	SEGMENT
?MaxInt@@3HB DD	01H DUP (?)				; MaxInt
	ALIGN	8

?MaxDouble@@3NB DQ 01H DUP (?)				; MaxDouble
?MinDouble@@3NB DQ 01H DUP (?)				; MinDouble
?MaxFloat@@3MB DD 01H DUP (?)				; MaxFloat
?MinFloat@@3MB DD 01H DUP (?)				; MinFloat
_BSS	ENDS
CRT$XCU	SEGMENT
?MaxInt$initializer$@@3P6AXXZA DD FLAT:??__EMaxInt@@YAXXZ ; MaxInt$initializer$
CRT$XCU	ENDS
;	COMDAT __xmm@41f00000000000000000000000000000
CONST	SEGMENT
__xmm@41f00000000000000000000000000000 DB 00H, 00H, 00H, 00H, 00H, 00H, 00H
	DB	00H, 00H, 00H, 00H, 00H, 00H, 00H, 0f0H, 'A'
CONST	ENDS
;	COMDAT __real@7fefffffffffffff
CONST	SEGMENT
__real@7fefffffffffffff DQ 07fefffffffffffffr	; 1.79769e+308
CONST	ENDS
;	COMDAT __real@7f7fffff
CONST	SEGMENT
__real@7f7fffff DD 07f7fffffr			; 3.40282e+38
CONST	ENDS
;	COMDAT __real@3ff0000000000000
CONST	SEGMENT
__real@3ff0000000000000 DQ 03ff0000000000000r	; 1
CONST	ENDS
;	COMDAT __real@00800000
CONST	SEGMENT
__real@00800000 DD 000800000r			; 1.17549e-38
CONST	ENDS
;	COMDAT __real@0010000000000000
CONST	SEGMENT
__real@0010000000000000 DQ 00010000000000000r	; 2.22507e-308
CONST	ENDS
;	COMDAT rtc$TMZ
rtc$TMZ	SEGMENT
__RTC_Shutdown.rtc$TMZ DD FLAT:__RTC_Shutdown
rtc$TMZ	ENDS
;	COMDAT rtc$IMZ
rtc$IMZ	SEGMENT
__RTC_InitBase.rtc$IMZ DD FLAT:__RTC_InitBase
rtc$IMZ	ENDS
;	COMDAT ??_R1A@?0A@EA@bad_array_new_length@std@@8
rdata$r	SEGMENT
??_R1A@?0A@EA@bad_array_new_length@std@@8 DD FLAT:??_R0?AVbad_array_new_length@std@@@8 ; std::bad_array_new_length::`RTTI Base Class Descriptor at (0,-1,0,64)'
	DD	02H
	DD	00H
	DD	0ffffffffH
	DD	00H
	DD	040H
	DD	FLAT:??_R3bad_array_new_length@std@@8
rdata$r	ENDS
;	COMDAT ??_R2bad_array_new_length@std@@8
rdata$r	SEGMENT
??_R2bad_array_new_length@std@@8 DD FLAT:??_R1A@?0A@EA@bad_array_new_length@std@@8 ; std::bad_array_new_length::`RTTI Base Class Array'
	DD	FLAT:??_R1A@?0A@EA@bad_alloc@std@@8
	DD	FLAT:??_R1A@?0A@EA@exception@std@@8
rdata$r	ENDS
;	COMDAT ??_R3bad_array_new_length@std@@8
rdata$r	SEGMENT
??_R3bad_array_new_length@std@@8 DD 00H			; std::bad_array_new_length::`RTTI Class Hierarchy Descriptor'
	DD	00H
	DD	03H
	DD	FLAT:??_R2bad_array_new_length@std@@8
rdata$r	ENDS
;	COMDAT ??_R4bad_array_new_length@std@@6B@
rdata$r	SEGMENT
??_R4bad_array_new_length@std@@6B@ DD 00H		; std::bad_array_new_length::`RTTI Complete Object Locator'
	DD	00H
	DD	00H
	DD	FLAT:??_R0?AVbad_array_new_length@std@@@8
	DD	FLAT:??_R3bad_array_new_length@std@@8
rdata$r	ENDS
;	COMDAT ??_R1A@?0A@EA@bad_alloc@std@@8
rdata$r	SEGMENT
??_R1A@?0A@EA@bad_alloc@std@@8 DD FLAT:??_R0?AVbad_alloc@std@@@8 ; std::bad_alloc::`RTTI Base Class Descriptor at (0,-1,0,64)'
	DD	01H
	DD	00H
	DD	0ffffffffH
	DD	00H
	DD	040H
	DD	FLAT:??_R3bad_alloc@std@@8
rdata$r	ENDS
;	COMDAT ??_R2bad_alloc@std@@8
rdata$r	SEGMENT
??_R2bad_alloc@std@@8 DD FLAT:??_R1A@?0A@EA@bad_alloc@std@@8 ; std::bad_alloc::`RTTI Base Class Array'
	DD	FLAT:??_R1A@?0A@EA@exception@std@@8
rdata$r	ENDS
;	COMDAT ??_R3bad_alloc@std@@8
rdata$r	SEGMENT
??_R3bad_alloc@std@@8 DD 00H				; std::bad_alloc::`RTTI Class Hierarchy Descriptor'
	DD	00H
	DD	02H
	DD	FLAT:??_R2bad_alloc@std@@8
rdata$r	ENDS
;	COMDAT ??_R4bad_alloc@std@@6B@
rdata$r	SEGMENT
??_R4bad_alloc@std@@6B@ DD 00H				; std::bad_alloc::`RTTI Complete Object Locator'
	DD	00H
	DD	00H
	DD	FLAT:??_R0?AVbad_alloc@std@@@8
	DD	FLAT:??_R3bad_alloc@std@@8
rdata$r	ENDS
;	COMDAT ??_R1A@?0A@EA@exception@std@@8
rdata$r	SEGMENT
??_R1A@?0A@EA@exception@std@@8 DD FLAT:??_R0?AVexception@std@@@8 ; std::exception::`RTTI Base Class Descriptor at (0,-1,0,64)'
	DD	00H
	DD	00H
	DD	0ffffffffH
	DD	00H
	DD	040H
	DD	FLAT:??_R3exception@std@@8
rdata$r	ENDS
;	COMDAT ??_R2exception@std@@8
rdata$r	SEGMENT
??_R2exception@std@@8 DD FLAT:??_R1A@?0A@EA@exception@std@@8 ; std::exception::`RTTI Base Class Array'
rdata$r	ENDS
;	COMDAT ??_R3exception@std@@8
rdata$r	SEGMENT
??_R3exception@std@@8 DD 00H				; std::exception::`RTTI Class Hierarchy Descriptor'
	DD	00H
	DD	01H
	DD	FLAT:??_R2exception@std@@8
rdata$r	ENDS
;	COMDAT ??_R4exception@std@@6B@
rdata$r	SEGMENT
??_R4exception@std@@6B@ DD 00H				; std::exception::`RTTI Complete Object Locator'
	DD	00H
	DD	00H
	DD	FLAT:??_R0?AVexception@std@@@8
	DD	FLAT:??_R3exception@std@@8
rdata$r	ENDS
;	COMDAT ??_C@_0BD@OLBABOEK@vector?$DMT?$DO?5too?5long@
CONST	SEGMENT
??_C@_0BD@OLBABOEK@vector?$DMT?$DO?5too?5long@ DB 'vector<T> too long', 00H ; `string'
CONST	ENDS
;	COMDAT ??_C@_1HO@GLEAPAMD@?$AAs?$AAt?$AAd?$AA?3?$AA?3?$AAv?$AAe?$AAc?$AAt?$AAo?$AAr?$AA?$DM?$AAd?$AAo?$AAu@
CONST	SEGMENT
??_C@_1HO@GLEAPAMD@?$AAs?$AAt?$AAd?$AA?3?$AA?3?$AAv?$AAe?$AAc?$AAt?$AAo?$AAr?$AA?$DM?$AAd?$AAo?$AAu@ DB 's'
	DB	00H, 't', 00H, 'd', 00H, ':', 00H, ':', 00H, 'v', 00H, 'e', 00H
	DB	'c', 00H, 't', 00H, 'o', 00H, 'r', 00H, '<', 00H, 'd', 00H, 'o'
	DB	00H, 'u', 00H, 'b', 00H, 'l', 00H, 'e', 00H, ',', 00H, 'c', 00H
	DB	'l', 00H, 'a', 00H, 's', 00H, 's', 00H, ' ', 00H, 's', 00H, 't'
	DB	00H, 'd', 00H, ':', 00H, ':', 00H, 'a', 00H, 'l', 00H, 'l', 00H
	DB	'o', 00H, 'c', 00H, 'a', 00H, 't', 00H, 'o', 00H, 'r', 00H, '<'
	DB	00H, 'd', 00H, 'o', 00H, 'u', 00H, 'b', 00H, 'l', 00H, 'e', 00H
	DB	'>', 00H, ' ', 00H, '>', 00H, ':', 00H, ':', 00H, 'o', 00H, 'p'
	DB	00H, 'e', 00H, 'r', 00H, 'a', 00H, 't', 00H, 'o', 00H, 'r', 00H
	DB	' ', 00H, '[', 00H, ']', 00H, 00H, 00H	; `string'
CONST	ENDS
;	COMDAT ??_C@_1EA@LEKOKFNB@?$AA?$CC?$AAv?$AAe?$AAc?$AAt?$AAo?$AAr?$AA?5?$AAs?$AAu?$AAb?$AAs?$AAc?$AAr?$AAi@
CONST	SEGMENT
??_C@_1EA@LEKOKFNB@?$AA?$CC?$AAv?$AAe?$AAc?$AAt?$AAo?$AAr?$AA?5?$AAs?$AAu?$AAb?$AAs?$AAc?$AAr?$AAi@ DB '"'
	DB	00H, 'v', 00H, 'e', 00H, 'c', 00H, 't', 00H, 'o', 00H, 'r', 00H
	DB	' ', 00H, 's', 00H, 'u', 00H, 'b', 00H, 's', 00H, 'c', 00H, 'r'
	DB	00H, 'i', 00H, 'p', 00H, 't', 00H, ' ', 00H, 'o', 00H, 'u', 00H
	DB	't', 00H, ' ', 00H, 'o', 00H, 'f', 00H, ' ', 00H, 'r', 00H, 'a'
	DB	00H, 'n', 00H, 'g', 00H, 'e', 00H, '"', 00H, 00H, 00H ; `string'
CONST	ENDS
;	COMDAT ??_C@_1BEE@BOINOPIE@?$AAs?$AAt?$AAd?$AA?3?$AA?3?$AAv?$AAe?$AAc?$AAt?$AAo?$AAr?$AA?$DM?$AAc?$AAl?$AAa@
CONST	SEGMENT
??_C@_1BEE@BOINOPIE@?$AAs?$AAt?$AAd?$AA?3?$AA?3?$AAv?$AAe?$AAc?$AAt?$AAo?$AAr?$AA?$DM?$AAc?$AAl?$AAa@ DB 's'
	DB	00H, 't', 00H, 'd', 00H, ':', 00H, ':', 00H, 'v', 00H, 'e', 00H
	DB	'c', 00H, 't', 00H, 'o', 00H, 'r', 00H, '<', 00H, 'c', 00H, 'l'
	DB	00H, 'a', 00H, 's', 00H, 's', 00H, ' ', 00H, 's', 00H, 't', 00H
	DB	'd', 00H, ':', 00H, ':', 00H, 'v', 00H, 'e', 00H, 'c', 00H, 't'
	DB	00H, 'o', 00H, 'r', 00H, '<', 00H, 'd', 00H, 'o', 00H, 'u', 00H
	DB	'b', 00H, 'l', 00H, 'e', 00H, ',', 00H, 'c', 00H, 'l', 00H, 'a'
	DB	00H, 's', 00H, 's', 00H, ' ', 00H, 's', 00H, 't', 00H, 'd', 00H
	DB	':', 00H, ':', 00H, 'a', 00H, 'l', 00H, 'l', 00H, 'o', 00H, 'c'
	DB	00H, 'a', 00H, 't', 00H, 'o', 00H, 'r', 00H, '<', 00H, 'd', 00H
	DB	'o', 00H, 'u', 00H, 'b', 00H, 'l', 00H, 'e', 00H, '>', 00H, ' '
	DB	00H, '>', 00H, ',', 00H, 'c', 00H, 'l', 00H, 'a', 00H, 's', 00H
	DB	's', 00H, ' ', 00H, 's', 00H, 't', 00H, 'd', 00H, ':', 00H, ':'
	DB	00H, 'a', 00H, 'l', 00H, 'l', 00H, 'o', 00H, 'c', 00H, 'a', 00H
	DB	't', 00H, 'o', 00H, 'r', 00H, '<', 00H, 'c', 00H, 'l', 00H, 'a'
	DB	00H, 's', 00H, 's', 00H, ' ', 00H, 's', 00H, 't', 00H, 'd', 00H
	DB	':', 00H, ':', 00H, 'v', 00H, 'e', 00H, 'c', 00H, 't', 00H, 'o'
	DB	00H, 'r', 00H, '<', 00H, 'd', 00H, 'o', 00H, 'u', 00H, 'b', 00H
	DB	'l', 00H, 'e', 00H, ',', 00H, 'c', 00H, 'l', 00H, 'a', 00H, 's'
	DB	00H, 's', 00H, ' ', 00H, 's', 00H, 't', 00H, 'd', 00H, ':', 00H
	DB	':', 00H, 'a', 00H, 'l', 00H, 'l', 00H, 'o', 00H, 'c', 00H, 'a'
	DB	00H, 't', 00H, 'o', 00H, 'r', 00H, '<', 00H, 'd', 00H, 'o', 00H
	DB	'u', 00H, 'b', 00H, 'l', 00H, 'e', 00H, '>', 00H, ' ', 00H, '>'
	DB	00H, ' ', 00H, '>', 00H, ' ', 00H, '>', 00H, ':', 00H, ':', 00H
	DB	'o', 00H, 'p', 00H, 'e', 00H, 'r', 00H, 'a', 00H, 't', 00H, 'o'
	DB	00H, 'r', 00H, ' ', 00H, '[', 00H, ']', 00H, 00H, 00H ; `string'
CONST	ENDS
;	COMDAT ??_C@_1MO@NOOOHLI@?$AAC?$AA?3?$AA?2?$AAP?$AAr?$AAo?$AAg?$AAr?$AAa?$AAm?$AA?5?$AAF?$AAi?$AAl?$AAe@
CONST	SEGMENT
??_C@_1MO@NOOOHLI@?$AAC?$AA?3?$AA?2?$AAP?$AAr?$AAo?$AAg?$AAr?$AAa?$AAm?$AA?5?$AAF?$AAi?$AAl?$AAe@ DB 'C'
	DB	00H, ':', 00H, '\', 00H, 'P', 00H, 'r', 00H, 'o', 00H, 'g', 00H
	DB	'r', 00H, 'a', 00H, 'm', 00H, ' ', 00H, 'F', 00H, 'i', 00H, 'l'
	DB	00H, 'e', 00H, 's', 00H, ' ', 00H, '(', 00H, 'x', 00H, '8', 00H
	DB	'6', 00H, ')', 00H, '\', 00H, 'M', 00H, 'i', 00H, 'c', 00H, 'r'
	DB	00H, 'o', 00H, 's', 00H, 'o', 00H, 'f', 00H, 't', 00H, ' ', 00H
	DB	'V', 00H, 'i', 00H, 's', 00H, 'u', 00H, 'a', 00H, 'l', 00H, ' '
	DB	00H, 'S', 00H, 't', 00H, 'u', 00H, 'd', 00H, 'i', 00H, 'o', 00H
	DB	'\', 00H, '2', 00H, '0', 00H, '1', 00H, '9', 00H, '\', 00H, 'C'
	DB	00H, 'o', 00H, 'm', 00H, 'm', 00H, 'u', 00H, 'n', 00H, 'i', 00H
	DB	't', 00H, 'y', 00H, '\', 00H, 'V', 00H, 'C', 00H, '\', 00H, 'T'
	DB	00H, 'o', 00H, 'o', 00H, 'l', 00H, 's', 00H, '\', 00H, 'M', 00H
	DB	'S', 00H, 'V', 00H, 'C', 00H, '\', 00H, '1', 00H, '4', 00H, '.'
	DB	00H, '2', 00H, '3', 00H, '.', 00H, '2', 00H, '8', 00H, '1', 00H
	DB	'0', 00H, '5', 00H, '\', 00H, 'i', 00H, 'n', 00H, 'c', 00H, 'l'
	DB	00H, 'u', 00H, 'd', 00H, 'e', 00H, '\', 00H, 'v', 00H, 'e', 00H
	DB	'c', 00H, 't', 00H, 'o', 00H, 'r', 00H, 00H, 00H ; `string'
CONST	ENDS
;	COMDAT ??_C@_0GH@OOPCKGB@C?3?2Program?5Files?5?$CIx86?$CJ?2Microsof@
CONST	SEGMENT
??_C@_0GH@OOPCKGB@C?3?2Program?5Files?5?$CIx86?$CJ?2Microsof@ DB 'C:\Prog'
	DB	'ram Files (x86)\Microsoft Visual Studio\2019\Community\VC\Too'
	DB	'ls\MSVC\14.23.28105\include\vector', 00H	; `string'
CONST	ENDS
;	COMDAT ??_C@_0BO@PFKOHNJC@vector?5subscript?5out?5of?5range@
CONST	SEGMENT
??_C@_0BO@PFKOHNJC@vector?5subscript?5out?5of?5range@ DB 'vector subscrip'
	DB	't out of range', 00H			; `string'
CONST	ENDS
;	COMDAT __CTA1?AVexception@std@@
xdata$x	SEGMENT
__CTA1?AVexception@std@@ DD 01H
	DD	FLAT:__CT??_R0?AVexception@std@@@8??0exception@std@@QAE@ABV01@@Z12
xdata$x	ENDS
;	COMDAT __TI1?AVexception@std@@
xdata$x	SEGMENT
__TI1?AVexception@std@@ DD 00H
	DD	FLAT:??1exception@std@@UAE@XZ
	DD	00H
	DD	FLAT:__CTA1?AVexception@std@@
xdata$x	ENDS
;	COMDAT ??_C@_1CG@JNLFBNGN@?$AA?$CC?$AAi?$AAn?$AAv?$AAa?$AAl?$AAi?$AAd?$AA?5?$AAa?$AAr?$AAg?$AAu?$AAm?$AAe@
CONST	SEGMENT
??_C@_1CG@JNLFBNGN@?$AA?$CC?$AAi?$AAn?$AAv?$AAa?$AAl?$AAi?$AAd?$AA?5?$AAa?$AAr?$AAg?$AAu?$AAm?$AAe@ DB '"'
	DB	00H, 'i', 00H, 'n', 00H, 'v', 00H, 'a', 00H, 'l', 00H, 'i', 00H
	DB	'd', 00H, ' ', 00H, 'a', 00H, 'r', 00H, 'g', 00H, 'u', 00H, 'm'
	DB	00H, 'e', 00H, 'n', 00H, 't', 00H, '"', 00H, 00H, 00H ; `string'
CONST	ENDS
;	COMDAT ??_C@_1EK@NIFDJFDG@?$AAs?$AAt?$AAd?$AA?3?$AA?3?$AA_?$AAA?$AAd?$AAj?$AAu?$AAs?$AAt?$AA_?$AAm?$AAa@
CONST	SEGMENT
??_C@_1EK@NIFDJFDG@?$AAs?$AAt?$AAd?$AA?3?$AA?3?$AA_?$AAA?$AAd?$AAj?$AAu?$AAs?$AAt?$AA_?$AAm?$AAa@ DB 's'
	DB	00H, 't', 00H, 'd', 00H, ':', 00H, ':', 00H, '_', 00H, 'A', 00H
	DB	'd', 00H, 'j', 00H, 'u', 00H, 's', 00H, 't', 00H, '_', 00H, 'm'
	DB	00H, 'a', 00H, 'n', 00H, 'u', 00H, 'a', 00H, 'l', 00H, 'l', 00H
	DB	'y', 00H, '_', 00H, 'v', 00H, 'e', 00H, 'c', 00H, 't', 00H, 'o'
	DB	00H, 'r', 00H, '_', 00H, 'a', 00H, 'l', 00H, 'i', 00H, 'g', 00H
	DB	'n', 00H, 'e', 00H, 'd', 00H, 00H, 00H	; `string'
CONST	ENDS
;	COMDAT ??_C@_1NA@CDBIFGMM@?$AAC?$AA?3?$AA?2?$AAP?$AAr?$AAo?$AAg?$AAr?$AAa?$AAm?$AA?5?$AAF?$AAi?$AAl?$AAe@
CONST	SEGMENT
??_C@_1NA@CDBIFGMM@?$AAC?$AA?3?$AA?2?$AAP?$AAr?$AAo?$AAg?$AAr?$AAa?$AAm?$AA?5?$AAF?$AAi?$AAl?$AAe@ DB 'C'
	DB	00H, ':', 00H, '\', 00H, 'P', 00H, 'r', 00H, 'o', 00H, 'g', 00H
	DB	'r', 00H, 'a', 00H, 'm', 00H, ' ', 00H, 'F', 00H, 'i', 00H, 'l'
	DB	00H, 'e', 00H, 's', 00H, ' ', 00H, '(', 00H, 'x', 00H, '8', 00H
	DB	'6', 00H, ')', 00H, '\', 00H, 'M', 00H, 'i', 00H, 'c', 00H, 'r'
	DB	00H, 'o', 00H, 's', 00H, 'o', 00H, 'f', 00H, 't', 00H, ' ', 00H
	DB	'V', 00H, 'i', 00H, 's', 00H, 'u', 00H, 'a', 00H, 'l', 00H, ' '
	DB	00H, 'S', 00H, 't', 00H, 'u', 00H, 'd', 00H, 'i', 00H, 'o', 00H
	DB	'\', 00H, '2', 00H, '0', 00H, '1', 00H, '9', 00H, '\', 00H, 'C'
	DB	00H, 'o', 00H, 'm', 00H, 'm', 00H, 'u', 00H, 'n', 00H, 'i', 00H
	DB	't', 00H, 'y', 00H, '\', 00H, 'V', 00H, 'C', 00H, '\', 00H, 'T'
	DB	00H, 'o', 00H, 'o', 00H, 'l', 00H, 's', 00H, '\', 00H, 'M', 00H
	DB	'S', 00H, 'V', 00H, 'C', 00H, '\', 00H, '1', 00H, '4', 00H, '.'
	DB	00H, '2', 00H, '3', 00H, '.', 00H, '2', 00H, '8', 00H, '1', 00H
	DB	'0', 00H, '5', 00H, '\', 00H, 'i', 00H, 'n', 00H, 'c', 00H, 'l'
	DB	00H, 'u', 00H, 'd', 00H, 'e', 00H, '\', 00H, 'x', 00H, 'm', 00H
	DB	'e', 00H, 'm', 00H, 'o', 00H, 'r', 00H, 'y', 00H, 00H, 00H ; `string'
CONST	ENDS
;	COMDAT ??_C@_0GI@FJIKDGOA@C?3?2Program?5Files?5?$CIx86?$CJ?2Microsof@
CONST	SEGMENT
??_C@_0GI@FJIKDGOA@C?3?2Program?5Files?5?$CIx86?$CJ?2Microsof@ DB 'C:\Pro'
	DB	'gram Files (x86)\Microsoft Visual Studio\2019\Community\VC\To'
	DB	'ols\MSVC\14.23.28105\include\xmemory', 00H	; `string'
CONST	ENDS
;	COMDAT ??_C@_02DKCKIIND@?$CFs@
CONST	SEGMENT
??_C@_02DKCKIIND@?$CFs@ DB '%s', 00H			; `string'
CONST	ENDS
;	COMDAT ??_C@_0BB@FCMFBGOM@invalid?5argument@
CONST	SEGMENT
??_C@_0BB@FCMFBGOM@invalid?5argument@ DB 'invalid argument', 00H ; `string'
CONST	ENDS
;	COMDAT __CT??_R0?AVexception@std@@@8??0exception@std@@QAE@ABV01@@Z12
xdata$x	SEGMENT
__CT??_R0?AVexception@std@@@8??0exception@std@@QAE@ABV01@@Z12 DD 00H
	DD	FLAT:??_R0?AVexception@std@@@8
	DD	00H
	DD	0ffffffffH
	ORG $+4
	DD	0cH
	DD	FLAT:??0exception@std@@QAE@ABV01@@Z
xdata$x	ENDS
;	COMDAT ??_R0?AVexception@std@@@8
data$r	SEGMENT
??_R0?AVexception@std@@@8 DD FLAT:??_7type_info@@6B@	; std::exception `RTTI Type Descriptor'
	DD	00H
	DB	'.?AVexception@std@@', 00H
data$r	ENDS
;	COMDAT __CT??_R0?AVbad_alloc@std@@@8??0bad_alloc@std@@QAE@ABV01@@Z12
xdata$x	SEGMENT
__CT??_R0?AVbad_alloc@std@@@8??0bad_alloc@std@@QAE@ABV01@@Z12 DD 010H
	DD	FLAT:??_R0?AVbad_alloc@std@@@8
	DD	00H
	DD	0ffffffffH
	ORG $+4
	DD	0cH
	DD	FLAT:??0bad_alloc@std@@QAE@ABV01@@Z
xdata$x	ENDS
;	COMDAT ??_R0?AVbad_alloc@std@@@8
data$r	SEGMENT
??_R0?AVbad_alloc@std@@@8 DD FLAT:??_7type_info@@6B@	; std::bad_alloc `RTTI Type Descriptor'
	DD	00H
	DB	'.?AVbad_alloc@std@@', 00H
data$r	ENDS
;	COMDAT __CT??_R0?AVbad_array_new_length@std@@@8??0bad_array_new_length@std@@QAE@ABV01@@Z12
xdata$x	SEGMENT
__CT??_R0?AVbad_array_new_length@std@@@8??0bad_array_new_length@std@@QAE@ABV01@@Z12 DD 00H
	DD	FLAT:??_R0?AVbad_array_new_length@std@@@8
	DD	00H
	DD	0ffffffffH
	ORG $+4
	DD	0cH
	DD	FLAT:??0bad_array_new_length@std@@QAE@ABV01@@Z
xdata$x	ENDS
;	COMDAT ??_R0?AVbad_array_new_length@std@@@8
data$r	SEGMENT
??_R0?AVbad_array_new_length@std@@@8 DD FLAT:??_7type_info@@6B@ ; std::bad_array_new_length `RTTI Type Descriptor'
	DD	00H
	DB	'.?AVbad_array_new_length@std@@', 00H
data$r	ENDS
;	COMDAT __CTA3?AVbad_array_new_length@std@@
xdata$x	SEGMENT
__CTA3?AVbad_array_new_length@std@@ DD 03H
	DD	FLAT:__CT??_R0?AVbad_array_new_length@std@@@8??0bad_array_new_length@std@@QAE@ABV01@@Z12
	DD	FLAT:__CT??_R0?AVbad_alloc@std@@@8??0bad_alloc@std@@QAE@ABV01@@Z12
	DD	FLAT:__CT??_R0?AVexception@std@@@8??0exception@std@@QAE@ABV01@@Z12
xdata$x	ENDS
;	COMDAT __TI3?AVbad_array_new_length@std@@
xdata$x	SEGMENT
__TI3?AVbad_array_new_length@std@@ DD 00H
	DD	FLAT:??1bad_array_new_length@std@@UAE@XZ
	DD	00H
	DD	FLAT:__CTA3?AVbad_array_new_length@std@@
xdata$x	ENDS
;	COMDAT ??_C@_0BF@KINCDENJ@bad?5array?5new?5length@
CONST	SEGMENT
??_C@_0BF@KINCDENJ@bad?5array?5new?5length@ DB 'bad array new length', 00H ; `string'
CONST	ENDS
;	COMDAT ??_7bad_array_new_length@std@@6B@
CONST	SEGMENT
??_7bad_array_new_length@std@@6B@ DD FLAT:??_R4bad_array_new_length@std@@6B@ ; std::bad_array_new_length::`vftable'
	DD	FLAT:??_Ebad_array_new_length@std@@UAEPAXI@Z
	DD	FLAT:?what@exception@std@@UBEPBDXZ
CONST	ENDS
;	COMDAT ??_7bad_alloc@std@@6B@
CONST	SEGMENT
??_7bad_alloc@std@@6B@ DD FLAT:??_R4bad_alloc@std@@6B@	; std::bad_alloc::`vftable'
	DD	FLAT:??_Ebad_alloc@std@@UAEPAXI@Z
	DD	FLAT:?what@exception@std@@UBEPBDXZ
CONST	ENDS
;	COMDAT ??_C@_0BC@EOODALEL@Unknown?5exception@
CONST	SEGMENT
??_C@_0BC@EOODALEL@Unknown?5exception@ DB 'Unknown exception', 00H ; `string'
CONST	ENDS
;	COMDAT ??_7exception@std@@6B@
CONST	SEGMENT
??_7exception@std@@6B@ DD FLAT:??_R4exception@std@@6B@	; std::exception::`vftable'
	DD	FLAT:??_Eexception@std@@UAEPAXI@Z
	DD	FLAT:?what@exception@std@@UBEPBDXZ
CONST	ENDS
;	COMDAT xdata$x
xdata$x	SEGMENT
__unwindtable$??$_Uninitialized_move@PAV?$vector@NV?$allocator@N@std@@@std@@V?$allocator@V?$vector@NV?$allocator@N@std@@@std@@@2@@std@@YAPAV?$vector@NV?$allocator@N@std@@@0@QAV10@0PAV10@AAV?$allocator@V?$vector@NV?$allocator@N@std@@@std@@@0@@Z DD 0ffffffffH
	DD	FLAT:__unwindfunclet$??$_Uninitialized_move@PAV?$vector@NV?$allocator@N@std@@@std@@V?$allocator@V?$vector@NV?$allocator@N@std@@@std@@@2@@std@@YAPAV?$vector@NV?$allocator@N@std@@@0@QAV10@0PAV10@AAV?$allocator@V?$vector@NV?$allocator@N@std@@@std@@@0@@Z$0
__ehfuncinfo$??$_Uninitialized_move@PAV?$vector@NV?$allocator@N@std@@@std@@V?$allocator@V?$vector@NV?$allocator@N@std@@@std@@@2@@std@@YAPAV?$vector@NV?$allocator@N@std@@@0@QAV10@0PAV10@AAV?$allocator@V?$vector@NV?$allocator@N@std@@@std@@@0@@Z DD 019930522H
	DD	01H
	DD	FLAT:__unwindtable$??$_Uninitialized_move@PAV?$vector@NV?$allocator@N@std@@@std@@V?$allocator@V?$vector@NV?$allocator@N@std@@@std@@@2@@std@@YAPAV?$vector@NV?$allocator@N@std@@@0@QAV10@0PAV10@AAV?$allocator@V?$vector@NV?$allocator@N@std@@@std@@@0@@Z
	DD	2 DUP(00H)
	DD	2 DUP(00H)
	DD	00H
	DD	01H
xdata$x	ENDS
;	COMDAT xdata$x
xdata$x	SEGMENT
__ehfuncinfo$??$_Deallocate_plain@V?$allocator@U_Container_proxy@std@@@std@@@std@@YAXAAV?$allocator@U_Container_proxy@std@@@0@QAU_Container_proxy@0@@Z DD 019930522H
	DD	00H
	DD	00H
	DD	2 DUP(00H)
	DD	2 DUP(00H)
	DD	00H
	DD	05H
xdata$x	ENDS
;	COMDAT xdata$x
xdata$x	SEGMENT
__ehfuncinfo$??$_Destroy_range@V?$allocator@V?$vector@NV?$allocator@N@std@@@std@@@std@@@std@@YAXPAV?$vector@NV?$allocator@N@std@@@0@QAV10@AAV?$allocator@V?$vector@NV?$allocator@N@std@@@std@@@0@@Z DD 019930522H
	DD	00H
	DD	00H
	DD	2 DUP(00H)
	DD	2 DUP(00H)
	DD	00H
	DD	05H
xdata$x	ENDS
;	COMDAT xdata$x
xdata$x	SEGMENT
__ehfuncinfo$??$_Deallocate@$07$0A@@std@@YAXPAXI@Z DD 019930522H
	DD	00H
	DD	00H
	DD	2 DUP(00H)
	DD	2 DUP(00H)
	DD	00H
	DD	05H
xdata$x	ENDS
;	COMDAT xdata$x
xdata$x	SEGMENT
__catchsym$??$_Emplace_reallocate@ABV?$vector@NV?$allocator@N@std@@@std@@@?$vector@V?$vector@NV?$allocator@N@std@@@std@@V?$allocator@V?$vector@NV?$allocator@N@std@@@std@@@2@@std@@QAEPAV?$vector@NV?$allocator@N@std@@@1@QAV21@ABV21@@Z$2 DD 040H
	DD	00H
	DD	00H
	DD	FLAT:__catch$??$_Emplace_reallocate@ABV?$vector@NV?$allocator@N@std@@@std@@@?$vector@V?$vector@NV?$allocator@N@std@@@std@@V?$allocator@V?$vector@NV?$allocator@N@std@@@std@@@2@@std@@QAEPAV?$vector@NV?$allocator@N@std@@@1@QAV21@ABV21@@Z$0
__unwindtable$??$_Emplace_reallocate@ABV?$vector@NV?$allocator@N@std@@@std@@@?$vector@V?$vector@NV?$allocator@N@std@@@std@@V?$allocator@V?$vector@NV?$allocator@N@std@@@std@@@2@@std@@QAEPAV?$vector@NV?$allocator@N@std@@@1@QAV21@ABV21@@Z DD 0ffffffffH
	DD	00H
	DD	0ffffffffH
	DD	00H
__tryblocktable$??$_Emplace_reallocate@ABV?$vector@NV?$allocator@N@std@@@std@@@?$vector@V?$vector@NV?$allocator@N@std@@@std@@V?$allocator@V?$vector@NV?$allocator@N@std@@@std@@@2@@std@@QAEPAV?$vector@NV?$allocator@N@std@@@1@QAV21@ABV21@@Z DD 00H
	DD	00H
	DD	01H
	DD	01H
	DD	FLAT:__catchsym$??$_Emplace_reallocate@ABV?$vector@NV?$allocator@N@std@@@std@@@?$vector@V?$vector@NV?$allocator@N@std@@@std@@V?$allocator@V?$vector@NV?$allocator@N@std@@@std@@@2@@std@@QAEPAV?$vector@NV?$allocator@N@std@@@1@QAV21@ABV21@@Z$2
__ehfuncinfo$??$_Emplace_reallocate@ABV?$vector@NV?$allocator@N@std@@@std@@@?$vector@V?$vector@NV?$allocator@N@std@@@std@@V?$allocator@V?$vector@NV?$allocator@N@std@@@std@@@2@@std@@QAEPAV?$vector@NV?$allocator@N@std@@@1@QAV21@ABV21@@Z DD 019930522H
	DD	02H
	DD	FLAT:__unwindtable$??$_Emplace_reallocate@ABV?$vector@NV?$allocator@N@std@@@std@@@?$vector@V?$vector@NV?$allocator@N@std@@@std@@V?$allocator@V?$vector@NV?$allocator@N@std@@@std@@@2@@std@@QAEPAV?$vector@NV?$allocator@N@std@@@1@QAV21@ABV21@@Z
	DD	01H
	DD	FLAT:__tryblocktable$??$_Emplace_reallocate@ABV?$vector@NV?$allocator@N@std@@@std@@@?$vector@V?$vector@NV?$allocator@N@std@@@std@@V?$allocator@V?$vector@NV?$allocator@N@std@@@std@@@2@@std@@QAEPAV?$vector@NV?$allocator@N@std@@@1@QAV21@ABV21@@Z
	DD	2 DUP(00H)
	DD	00H
	DD	01H
xdata$x	ENDS
;	COMDAT xdata$x
xdata$x	SEGMENT
__ehfuncinfo$?_Tidy@?$vector@NV?$allocator@N@std@@@std@@AAEXXZ DD 019930522H
	DD	00H
	DD	00H
	DD	2 DUP(00H)
	DD	2 DUP(00H)
	DD	00H
	DD	05H
xdata$x	ENDS
;	COMDAT xdata$x
xdata$x	SEGMENT
__ehfuncinfo$??1?$vector@NV?$allocator@N@std@@@std@@QAE@XZ DD 019930522H
	DD	00H
	DD	00H
	DD	2 DUP(00H)
	DD	2 DUP(00H)
	DD	00H
	DD	05H
xdata$x	ENDS
;	COMDAT xdata$x
xdata$x	SEGMENT
__ehfuncinfo$??0?$vector@NV?$allocator@N@std@@@std@@QAE@$$QAV01@@Z DD 019930522H
	DD	00H
	DD	00H
	DD	2 DUP(00H)
	DD	2 DUP(00H)
	DD	00H
	DD	05H
xdata$x	ENDS
;	COMDAT xdata$x
xdata$x	SEGMENT
__unwindtable$??0?$vector@NV?$allocator@N@std@@@std@@QAE@ABV01@@Z DD 0ffffffffH
	DD	FLAT:__unwindfunclet$??0?$vector@NV?$allocator@N@std@@@std@@QAE@ABV01@@Z$0
	DD	00H
	DD	FLAT:__unwindfunclet$??0?$vector@NV?$allocator@N@std@@@std@@QAE@ABV01@@Z$1
__ehfuncinfo$??0?$vector@NV?$allocator@N@std@@@std@@QAE@ABV01@@Z DD 019930522H
	DD	02H
	DD	FLAT:__unwindtable$??0?$vector@NV?$allocator@N@std@@@std@@QAE@ABV01@@Z
	DD	2 DUP(00H)
	DD	2 DUP(00H)
	DD	00H
	DD	01H
xdata$x	ENDS
;	COMDAT xdata$x
xdata$x	SEGMENT
__ehfuncinfo$?_Swap_proxy_and_iterators@_Container_base12@std@@QAEXAAU12@@Z DD 019930522H
	DD	00H
	DD	00H
	DD	2 DUP(00H)
	DD	2 DUP(00H)
	DD	00H
	DD	05H
xdata$x	ENDS
;	COMDAT xdata$x
xdata$x	SEGMENT
__ehfuncinfo$?_Orphan_all@_Container_base12@std@@QAEXXZ DD 019930522H
	DD	00H
	DD	00H
	DD	2 DUP(00H)
	DD	2 DUP(00H)
	DD	00H
	DD	05H
xdata$x	ENDS
CRT$XCU	SEGMENT
?MaxDouble$initializer$@@3P6AXXZA DD FLAT:??__EMaxDouble@@YAXXZ ; MaxDouble$initializer$
CRT$XCU	ENDS
CRT$XCU	SEGMENT
?MinDouble$initializer$@@3P6AXXZA DD FLAT:??__EMinDouble@@YAXXZ ; MinDouble$initializer$
CRT$XCU	ENDS
CRT$XCU	SEGMENT
?MaxFloat$initializer$@@3P6AXXZA DD FLAT:??__EMaxFloat@@YAXXZ ; MaxFloat$initializer$
CRT$XCU	ENDS
CRT$XCU	SEGMENT
?MinFloat$initializer$@@3P6AXXZA DD FLAT:??__EMinFloat@@YAXXZ ; MinFloat$initializer$
CRT$XCU	ENDS
; Function compile flags: /Odtp /RTCsu
; File C:\Program Files (x86)\Microsoft Visual Studio\2019\Community\VC\Tools\MSVC\14.23.28105\include\type_traits
;	COMDAT ??$move@AAV?$allocator@N@std@@@std@@YA$$QAV?$allocator@N@0@AAV10@@Z
_TEXT	SEGMENT
__Arg$ = 8						; size = 4
??$move@AAV?$allocator@N@std@@@std@@YA$$QAV?$allocator@N@0@AAV10@@Z PROC ; std::move<std::allocator<double> &>, COMDAT

; 1432 : _NODISCARD constexpr remove_reference_t<_Ty>&& move(_Ty&& _Arg) noexcept { // forward _Arg as movable

	push	ebp
	mov	ebp, esp

; 1433 :     return static_cast<remove_reference_t<_Ty>&&>(_Arg);

	mov	eax, DWORD PTR __Arg$[ebp]

; 1434 : }

	pop	ebp
	ret	0
??$move@AAV?$allocator@N@std@@@std@@YA$$QAV?$allocator@N@0@AAV10@@Z ENDP ; std::move<std::allocator<double> &>
_TEXT	ENDS
; Function compile flags: /Odtp /RTCsu
; File C:\Program Files (x86)\Microsoft Visual Studio\2019\Community\VC\Tools\MSVC\14.23.28105\include\xutility
;	COMDAT ??$_Copy_memmove@PANPAN@std@@YAPANPAN00@Z
_TEXT	SEGMENT
__Count$ = -16						; size = 4
__Dest_ch$ = -12					; size = 4
__Last_ch$ = -8						; size = 4
__First_ch$ = -4					; size = 4
__First$ = 8						; size = 4
__Last$ = 12						; size = 4
__Dest$ = 16						; size = 4
??$_Copy_memmove@PANPAN@std@@YAPANPAN00@Z PROC		; std::_Copy_memmove<double *,double *>, COMDAT

; 1739 : _OutIt _Copy_memmove(_InIt _First, _InIt _Last, _OutIt _Dest) { // implement copy-like function as memmove

	push	ebp
	mov	ebp, esp
	sub	esp, 16					; 00000010H
	mov	eax, -858993460				; ccccccccH
	mov	DWORD PTR [ebp-16], eax
	mov	DWORD PTR [ebp-12], eax
	mov	DWORD PTR [ebp-8], eax
	mov	DWORD PTR [ebp-4], eax

; 1740 :     const char* const _First_ch = const_cast<const char*>(reinterpret_cast<const volatile char*>(_First));

	mov	eax, DWORD PTR __First$[ebp]
	mov	DWORD PTR __First_ch$[ebp], eax

; 1741 :     const char* const _Last_ch  = const_cast<const char*>(reinterpret_cast<const volatile char*>(_Last));

	mov	ecx, DWORD PTR __Last$[ebp]
	mov	DWORD PTR __Last_ch$[ebp], ecx

; 1742 :     char* const _Dest_ch        = const_cast<char*>(reinterpret_cast<volatile char*>(_Dest));

	mov	edx, DWORD PTR __Dest$[ebp]
	mov	DWORD PTR __Dest_ch$[ebp], edx

; 1743 :     const auto _Count           = static_cast<size_t>(_Last_ch - _First_ch);

	mov	eax, DWORD PTR __Last_ch$[ebp]
	sub	eax, DWORD PTR __First_ch$[ebp]
	mov	DWORD PTR __Count$[ebp], eax

; 1744 :     _CSTD memmove(_Dest_ch, _First_ch, _Count);

	mov	ecx, DWORD PTR __Count$[ebp]
	push	ecx
	mov	edx, DWORD PTR __First_ch$[ebp]
	push	edx
	mov	eax, DWORD PTR __Dest_ch$[ebp]
	push	eax
	call	_memmove
	add	esp, 12					; 0000000cH

; 1745 :     return reinterpret_cast<_OutIt>(_Dest_ch + _Count);

	mov	eax, DWORD PTR __Dest_ch$[ebp]
	add	eax, DWORD PTR __Count$[ebp]

; 1746 : }

	add	esp, 16					; 00000010H
	cmp	ebp, esp
	call	__RTC_CheckEsp
	mov	esp, ebp
	pop	ebp
	ret	0
??$_Copy_memmove@PANPAN@std@@YAPANPAN00@Z ENDP		; std::_Copy_memmove<double *,double *>
_TEXT	ENDS
; Function compile flags: /Odtp /RTCsu
; File C:\Program Files (x86)\Microsoft Visual Studio\2019\Community\VC\Tools\MSVC\14.23.28105\include\xstddef
;	COMDAT ??$_Unfancy@N@std@@YAPANPAN@Z
_TEXT	SEGMENT
__Ptr$ = 8						; size = 4
??$_Unfancy@N@std@@YAPANPAN@Z PROC			; std::_Unfancy<double>, COMDAT

; 293  : _Ty* _Unfancy(_Ty* _Ptr) { // do nothing for plain pointers

	push	ebp
	mov	ebp, esp

; 294  :     return _Ptr;

	mov	eax, DWORD PTR __Ptr$[ebp]

; 295  : }

	pop	ebp
	ret	0
??$_Unfancy@N@std@@YAPANPAN@Z ENDP			; std::_Unfancy<double>
_TEXT	ENDS
; Function compile flags: /Odtp /RTCsu
; File C:\Program Files (x86)\Microsoft Visual Studio\2019\Community\VC\Tools\MSVC\14.23.28105\include\xutility
;	COMDAT ??$_Get_unwrapped@N@std@@YAPANQAN@Z
_TEXT	SEGMENT
__Ptr$ = 8						; size = 4
??$_Get_unwrapped@N@std@@YAPANQAN@Z PROC		; std::_Get_unwrapped<double>, COMDAT

; 275  : _NODISCARD constexpr _Ty* _Get_unwrapped(_Ty* const _Ptr) { // special case already-unwrapped pointers

	push	ebp
	mov	ebp, esp

; 276  :     return _Ptr;

	mov	eax, DWORD PTR __Ptr$[ebp]

; 277  : }

	pop	ebp
	ret	0
??$_Get_unwrapped@N@std@@YAPANQAN@Z ENDP		; std::_Get_unwrapped<double>
_TEXT	ENDS
; Function compile flags: /Odtp /RTCsu
; File C:\Program Files (x86)\Microsoft Visual Studio\2019\Community\VC\Tools\MSVC\14.23.28105\include\xmemory
;	COMDAT ??$construct@V?$vector@NV?$allocator@N@std@@@std@@V12@@?$_Default_allocator_traits@V?$allocator@V?$vector@NV?$allocator@N@std@@@std@@@std@@@std@@SAXAAV?$allocator@V?$vector@NV?$allocator@N@std@@@std@@@1@QAV?$vector@NV?$allocator@N@std@@@1@$$QAV31@@Z
_TEXT	SEGMENT
$T1 = -4						; size = 4
___formal$ = 8						; size = 4
__Ptr$ = 12						; size = 4
_<_Args_0>$ = 16					; size = 4
??$construct@V?$vector@NV?$allocator@N@std@@@std@@V12@@?$_Default_allocator_traits@V?$allocator@V?$vector@NV?$allocator@N@std@@@std@@@std@@@std@@SAXAAV?$allocator@V?$vector@NV?$allocator@N@std@@@std@@@1@QAV?$vector@NV?$allocator@N@std@@@1@$$QAV31@@Z PROC ; std::_Default_allocator_traits<std::allocator<std::vector<double,std::allocator<double> > > >::construct<std::vector<double,std::allocator<double> >,std::vector<double,std::allocator<double> > >, COMDAT

; 757  :     static void construct(_Alloc&, _Objty* const _Ptr, _Types&&... _Args) {

	push	ebp
	mov	ebp, esp
	push	ecx
	mov	DWORD PTR [ebp-4], -858993460		; ccccccccH

; 758  :         ::new (const_cast<void*>(static_cast<const volatile void*>(_Ptr))) _Objty(_STD forward<_Types>(_Args)...);

	mov	eax, DWORD PTR __Ptr$[ebp]
	push	eax
	push	16					; 00000010H
	call	??2@YAPAXIPAX@Z				; operator new
	add	esp, 8
	mov	DWORD PTR $T1[ebp], eax
	mov	ecx, DWORD PTR _<_Args_0>$[ebp]
	push	ecx
	call	??$forward@V?$vector@NV?$allocator@N@std@@@std@@@std@@YA$$QAV?$vector@NV?$allocator@N@std@@@0@AAV10@@Z ; std::forward<std::vector<double,std::allocator<double> > >
	add	esp, 4
	push	eax
	mov	ecx, DWORD PTR $T1[ebp]
	call	??0?$vector@NV?$allocator@N@std@@@std@@QAE@$$QAV01@@Z ; std::vector<double,std::allocator<double> >::vector<double,std::allocator<double> >

; 759  :     }

	add	esp, 4
	cmp	ebp, esp
	call	__RTC_CheckEsp
	mov	esp, ebp
	pop	ebp
	ret	0
??$construct@V?$vector@NV?$allocator@N@std@@@std@@V12@@?$_Default_allocator_traits@V?$allocator@V?$vector@NV?$allocator@N@std@@@std@@@std@@@std@@SAXAAV?$allocator@V?$vector@NV?$allocator@N@std@@@std@@@1@QAV?$vector@NV?$allocator@N@std@@@1@$$QAV31@@Z ENDP ; std::_Default_allocator_traits<std::allocator<std::vector<double,std::allocator<double> > > >::construct<std::vector<double,std::allocator<double> >,std::vector<double,std::allocator<double> > >
_TEXT	ENDS
; Function compile flags: /Odtp /RTCsu
; File C:\Program Files (x86)\Microsoft Visual Studio\2019\Community\VC\Tools\MSVC\14.23.28105\include\type_traits
;	COMDAT ??$forward@V?$vector@NV?$allocator@N@std@@@std@@@std@@YA$$QAV?$vector@NV?$allocator@N@std@@@0@AAV10@@Z
_TEXT	SEGMENT
__Arg$ = 8						; size = 4
??$forward@V?$vector@NV?$allocator@N@std@@@std@@@std@@YA$$QAV?$vector@NV?$allocator@N@std@@@0@AAV10@@Z PROC ; std::forward<std::vector<double,std::allocator<double> > >, COMDAT

; 1420 :     remove_reference_t<_Ty>& _Arg) noexcept { // forward an lvalue as either an lvalue or an rvalue

	push	ebp
	mov	ebp, esp

; 1421 :     return static_cast<_Ty&&>(_Arg);

	mov	eax, DWORD PTR __Arg$[ebp]

; 1422 : }

	pop	ebp
	ret	0
??$forward@V?$vector@NV?$allocator@N@std@@@std@@@std@@YA$$QAV?$vector@NV?$allocator@N@std@@@0@AAV10@@Z ENDP ; std::forward<std::vector<double,std::allocator<double> > >
_TEXT	ENDS
; Function compile flags: /Odtp /RTCsu
; File C:\Program Files (x86)\Microsoft Visual Studio\2019\Community\VC\Tools\MSVC\14.23.28105\include\xmemory
;	COMDAT ??$_Uninitialized_copy@PANV?$allocator@N@std@@@std@@YAPANQAN0PANAAV?$allocator@N@0@@Z
_TEXT	SEGMENT
__ULast$ = -8						; size = 4
__UFirst$ = -4						; size = 4
__First$ = 8						; size = 4
__Last$ = 12						; size = 4
__Dest$ = 16						; size = 4
__Al$ = 20						; size = 4
??$_Uninitialized_copy@PANV?$allocator@N@std@@@std@@YAPANQAN0PANAAV?$allocator@N@0@@Z PROC ; std::_Uninitialized_copy<double *,std::allocator<double> >, COMDAT

; 1600 :     const _InIt _First, const _InIt _Last, _Alloc_ptr_t<_Alloc> _Dest, _Alloc& _Al) {

	push	ebp
	mov	ebp, esp
	sub	esp, 8
	mov	DWORD PTR [ebp-8], -858993460		; ccccccccH
	mov	DWORD PTR [ebp-4], -858993460		; ccccccccH

; 1601 :     // copy [_First, _Last) to raw _Dest, using _Al
; 1602 :     // note: only called internally from elsewhere in the STL
; 1603 :     using _Ptrval = typename _Alloc::value_type*;
; 1604 : 
; 1605 :     auto _UFirst      = _Get_unwrapped(_First);

	mov	eax, DWORD PTR __First$[ebp]
	push	eax
	call	??$_Get_unwrapped@N@std@@YAPANQAN@Z	; std::_Get_unwrapped<double>
	add	esp, 4
	mov	DWORD PTR __UFirst$[ebp], eax

; 1606 :     const auto _ULast = _Get_unwrapped(_Last);

	mov	ecx, DWORD PTR __Last$[ebp]
	push	ecx
	call	??$_Get_unwrapped@N@std@@YAPANQAN@Z	; std::_Get_unwrapped<double>
	add	esp, 4
	mov	DWORD PTR __ULast$[ebp], eax

; 1607 : 
; 1608 :     if constexpr (conjunction_v<bool_constant<_Ptr_copy_cat<decltype(_UFirst), _Ptrval>::_Really_trivial>,
; 1609 :                       _Uses_default_construct<_Alloc, _Ptrval, decltype(*_UFirst)>>) {
; 1610 :         _Copy_memmove(_UFirst, _ULast, _Unfancy(_Dest));

	mov	edx, DWORD PTR __Dest$[ebp]
	push	edx
	call	??$_Unfancy@N@std@@YAPANPAN@Z		; std::_Unfancy<double>
	add	esp, 4
	push	eax
	mov	eax, DWORD PTR __ULast$[ebp]
	push	eax
	mov	ecx, DWORD PTR __UFirst$[ebp]
	push	ecx
	call	??$_Copy_memmove@PANPAN@std@@YAPANPAN00@Z ; std::_Copy_memmove<double *,double *>
	add	esp, 12					; 0000000cH

; 1611 :         _Dest += _ULast - _UFirst;

	mov	edx, DWORD PTR __ULast$[ebp]
	sub	edx, DWORD PTR __UFirst$[ebp]
	sar	edx, 3
	mov	eax, DWORD PTR __Dest$[ebp]
	lea	ecx, DWORD PTR [eax+edx*8]
	mov	DWORD PTR __Dest$[ebp], ecx

; 1612 :         (void) _Al;
; 1613 :     } else {
; 1614 :         _Uninitialized_backout_al<_Alloc> _Backout{_Dest, _Al};
; 1615 :         for (; _UFirst != _ULast; ++_UFirst) {
; 1616 :             _Backout._Emplace_back(*_UFirst);
; 1617 :         }
; 1618 : 
; 1619 :         _Dest = _Backout._Release();
; 1620 :     }
; 1621 : 
; 1622 :     return _Dest;

	mov	eax, DWORD PTR __Dest$[ebp]

; 1623 : }

	add	esp, 8
	cmp	ebp, esp
	call	__RTC_CheckEsp
	mov	esp, ebp
	pop	ebp
	ret	0
??$_Uninitialized_copy@PANV?$allocator@N@std@@@std@@YAPANQAN0PANAAV?$allocator@N@0@@Z ENDP ; std::_Uninitialized_copy<double *,std::allocator<double> >
_TEXT	ENDS
; Function compile flags: /Odtp /RTCsu
; File C:\Program Files (x86)\Microsoft Visual Studio\2019\Community\VC\Tools\MSVC\14.23.28105\include\type_traits
;	COMDAT ??$forward@V?$allocator@N@std@@@std@@YA$$QAV?$allocator@N@0@AAV10@@Z
_TEXT	SEGMENT
__Arg$ = 8						; size = 4
??$forward@V?$allocator@N@std@@@std@@YA$$QAV?$allocator@N@0@AAV10@@Z PROC ; std::forward<std::allocator<double> >, COMDAT

; 1420 :     remove_reference_t<_Ty>& _Arg) noexcept { // forward an lvalue as either an lvalue or an rvalue

	push	ebp
	mov	ebp, esp

; 1421 :     return static_cast<_Ty&&>(_Arg);

	mov	eax, DWORD PTR __Arg$[ebp]

; 1422 : }

	pop	ebp
	ret	0
??$forward@V?$allocator@N@std@@@std@@YA$$QAV?$allocator@N@0@AAV10@@Z ENDP ; std::forward<std::allocator<double> >
_TEXT	ENDS
; Function compile flags: /Odtp /RTCsu
; File C:\Program Files (x86)\Microsoft Visual Studio\2019\Community\VC\Tools\MSVC\14.23.28105\include\xmemory
;	COMDAT ??$_Emplace_back@V?$vector@NV?$allocator@N@std@@@std@@@?$_Uninitialized_backout_al@V?$allocator@V?$vector@NV?$allocator@N@std@@@std@@@std@@@std@@QAEX$$QAV?$vector@NV?$allocator@N@std@@@1@@Z
_TEXT	SEGMENT
_this$ = -4						; size = 4
_<_Vals_0>$ = 8						; size = 4
??$_Emplace_back@V?$vector@NV?$allocator@N@std@@@std@@@?$_Uninitialized_backout_al@V?$allocator@V?$vector@NV?$allocator@N@std@@@std@@@std@@@std@@QAEX$$QAV?$vector@NV?$allocator@N@std@@@1@@Z PROC ; std::_Uninitialized_backout_al<std::allocator<std::vector<double,std::allocator<double> > > >::_Emplace_back<std::vector<double,std::allocator<double> > >, COMDAT
; _this$ = ecx

; 1580 :     void _Emplace_back(_Types&&... _Vals) { // construct a new element at *_Last and increment

	push	ebp
	mov	ebp, esp
	push	ecx
	mov	DWORD PTR [ebp-4], -858993460		; ccccccccH
	mov	DWORD PTR _this$[ebp], ecx

; 1581 :         allocator_traits<_Alloc>::construct(_Al, _Unfancy(_Last), _STD forward<_Types>(_Vals)...);

	mov	eax, DWORD PTR _<_Vals_0>$[ebp]
	push	eax
	call	??$forward@V?$vector@NV?$allocator@N@std@@@std@@@std@@YA$$QAV?$vector@NV?$allocator@N@std@@@0@AAV10@@Z ; std::forward<std::vector<double,std::allocator<double> > >
	add	esp, 4
	push	eax
	mov	ecx, DWORD PTR _this$[ebp]
	mov	edx, DWORD PTR [ecx+4]
	push	edx
	call	??$_Unfancy@V?$vector@NV?$allocator@N@std@@@std@@@std@@YAPAV?$vector@NV?$allocator@N@std@@@0@PAV10@@Z ; std::_Unfancy<std::vector<double,std::allocator<double> > >
	add	esp, 4
	push	eax
	mov	eax, DWORD PTR _this$[ebp]
	mov	ecx, DWORD PTR [eax+8]
	push	ecx
	call	??$construct@V?$vector@NV?$allocator@N@std@@@std@@V12@@?$_Default_allocator_traits@V?$allocator@V?$vector@NV?$allocator@N@std@@@std@@@std@@@std@@SAXAAV?$allocator@V?$vector@NV?$allocator@N@std@@@std@@@1@QAV?$vector@NV?$allocator@N@std@@@1@$$QAV31@@Z ; std::_Default_allocator_traits<std::allocator<std::vector<double,std::allocator<double> > > >::construct<std::vector<double,std::allocator<double> >,std::vector<double,std::allocator<double> > >
	add	esp, 12					; 0000000cH

; 1582 :         ++_Last;

	mov	edx, DWORD PTR _this$[ebp]
	mov	eax, DWORD PTR [edx+4]
	add	eax, 16					; 00000010H
	mov	ecx, DWORD PTR _this$[ebp]
	mov	DWORD PTR [ecx+4], eax

; 1583 :     }

	add	esp, 4
	cmp	ebp, esp
	call	__RTC_CheckEsp
	mov	esp, ebp
	pop	ebp
	ret	4
??$_Emplace_back@V?$vector@NV?$allocator@N@std@@@std@@@?$_Uninitialized_backout_al@V?$allocator@V?$vector@NV?$allocator@N@std@@@std@@@std@@@std@@QAEX$$QAV?$vector@NV?$allocator@N@std@@@1@@Z ENDP ; std::_Uninitialized_backout_al<std::allocator<std::vector<double,std::allocator<double> > > >::_Emplace_back<std::vector<double,std::allocator<double> > >
_TEXT	ENDS
; Function compile flags: /Odtp /RTCsu
; File C:\Program Files (x86)\Microsoft Visual Studio\2019\Community\VC\Tools\MSVC\14.23.28105\include\type_traits
;	COMDAT ??$move@AAV?$vector@NV?$allocator@N@std@@@std@@@std@@YA$$QAV?$vector@NV?$allocator@N@std@@@0@AAV10@@Z
_TEXT	SEGMENT
__Arg$ = 8						; size = 4
??$move@AAV?$vector@NV?$allocator@N@std@@@std@@@std@@YA$$QAV?$vector@NV?$allocator@N@std@@@0@AAV10@@Z PROC ; std::move<std::vector<double,std::allocator<double> > &>, COMDAT

; 1432 : _NODISCARD constexpr remove_reference_t<_Ty>&& move(_Ty&& _Arg) noexcept { // forward _Arg as movable

	push	ebp
	mov	ebp, esp

; 1433 :     return static_cast<remove_reference_t<_Ty>&&>(_Arg);

	mov	eax, DWORD PTR __Arg$[ebp]

; 1434 : }

	pop	ebp
	ret	0
??$move@AAV?$vector@NV?$allocator@N@std@@@std@@@std@@YA$$QAV?$vector@NV?$allocator@N@std@@@0@AAV10@@Z ENDP ; std::move<std::vector<double,std::allocator<double> > &>
_TEXT	ENDS
; Function compile flags: /Odtp /RTCsu
; File C:\Program Files (x86)\Microsoft Visual Studio\2019\Community\VC\Tools\MSVC\14.23.28105\include\xmemory
;	COMDAT ?_Release@?$_Uninitialized_backout_al@V?$allocator@V?$vector@NV?$allocator@N@std@@@std@@@std@@@std@@QAEPAV?$vector@NV?$allocator@N@std@@@2@XZ
_TEXT	SEGMENT
_this$ = -4						; size = 4
?_Release@?$_Uninitialized_backout_al@V?$allocator@V?$vector@NV?$allocator@N@std@@@std@@@std@@@std@@QAEPAV?$vector@NV?$allocator@N@std@@@2@XZ PROC ; std::_Uninitialized_backout_al<std::allocator<std::vector<double,std::allocator<double> > > >::_Release, COMDAT
; _this$ = ecx

; 1585 :     pointer _Release() { // suppress any exception handling backout and return _Last

	push	ebp
	mov	ebp, esp
	push	ecx
	mov	DWORD PTR [ebp-4], -858993460		; ccccccccH
	mov	DWORD PTR _this$[ebp], ecx

; 1586 :         _First = _Last;

	mov	eax, DWORD PTR _this$[ebp]
	mov	ecx, DWORD PTR _this$[ebp]
	mov	edx, DWORD PTR [ecx+4]
	mov	DWORD PTR [eax], edx

; 1587 :         return _Last;

	mov	eax, DWORD PTR _this$[ebp]
	mov	eax, DWORD PTR [eax+4]

; 1588 :     }

	mov	esp, ebp
	pop	ebp
	ret	0
?_Release@?$_Uninitialized_backout_al@V?$allocator@V?$vector@NV?$allocator@N@std@@@std@@@std@@@std@@QAEPAV?$vector@NV?$allocator@N@std@@@2@XZ ENDP ; std::_Uninitialized_backout_al<std::allocator<std::vector<double,std::allocator<double> > > >::_Release
_TEXT	ENDS
; Function compile flags: /Odtp /RTCsu
; File C:\Program Files (x86)\Microsoft Visual Studio\2019\Community\VC\Tools\MSVC\14.23.28105\include\xmemory
;	COMDAT ??1?$_Uninitialized_backout_al@V?$allocator@V?$vector@NV?$allocator@N@std@@@std@@@std@@@std@@QAE@XZ
_TEXT	SEGMENT
_this$ = -4						; size = 4
??1?$_Uninitialized_backout_al@V?$allocator@V?$vector@NV?$allocator@N@std@@@std@@@std@@@std@@QAE@XZ PROC ; std::_Uninitialized_backout_al<std::allocator<std::vector<double,std::allocator<double> > > >::~_Uninitialized_backout_al<std::allocator<std::vector<double,std::allocator<double> > > >, COMDAT
; _this$ = ecx

; 1575 :     ~_Uninitialized_backout_al() {

	push	ebp
	mov	ebp, esp
	push	ecx
	mov	DWORD PTR [ebp-4], -858993460		; ccccccccH
	mov	DWORD PTR _this$[ebp], ecx

; 1576 :         _Destroy_range(_First, _Last, _Al);

	mov	eax, DWORD PTR _this$[ebp]
	mov	ecx, DWORD PTR [eax+8]
	push	ecx
	mov	edx, DWORD PTR _this$[ebp]
	mov	eax, DWORD PTR [edx+4]
	push	eax
	mov	ecx, DWORD PTR _this$[ebp]
	mov	edx, DWORD PTR [ecx]
	push	edx
	call	??$_Destroy_range@V?$allocator@V?$vector@NV?$allocator@N@std@@@std@@@std@@@std@@YAXPAV?$vector@NV?$allocator@N@std@@@0@QAV10@AAV?$allocator@V?$vector@NV?$allocator@N@std@@@std@@@0@@Z ; std::_Destroy_range<std::allocator<std::vector<double,std::allocator<double> > > >
	add	esp, 12					; 0000000cH

; 1577 :     }

	add	esp, 4
	cmp	ebp, esp
	call	__RTC_CheckEsp
	mov	esp, ebp
	pop	ebp
	ret	0
??1?$_Uninitialized_backout_al@V?$allocator@V?$vector@NV?$allocator@N@std@@@std@@@std@@@std@@QAE@XZ ENDP ; std::_Uninitialized_backout_al<std::allocator<std::vector<double,std::allocator<double> > > >::~_Uninitialized_backout_al<std::allocator<std::vector<double,std::allocator<double> > > >
_TEXT	ENDS
; Function compile flags: /Odtp /RTCsu
; File C:\Program Files (x86)\Microsoft Visual Studio\2019\Community\VC\Tools\MSVC\14.23.28105\include\xmemory
;	COMDAT ??0?$_Uninitialized_backout_al@V?$allocator@V?$vector@NV?$allocator@N@std@@@std@@@std@@@std@@QAE@PAV?$vector@NV?$allocator@N@std@@@1@AAV?$allocator@V?$vector@NV?$allocator@N@std@@@std@@@1@@Z
_TEXT	SEGMENT
_this$ = -4						; size = 4
__Dest$ = 8						; size = 4
__Al_$ = 12						; size = 4
??0?$_Uninitialized_backout_al@V?$allocator@V?$vector@NV?$allocator@N@std@@@std@@@std@@@std@@QAE@PAV?$vector@NV?$allocator@N@std@@@1@AAV?$allocator@V?$vector@NV?$allocator@N@std@@@std@@@1@@Z PROC ; std::_Uninitialized_backout_al<std::allocator<std::vector<double,std::allocator<double> > > >::_Uninitialized_backout_al<std::allocator<std::vector<double,std::allocator<double> > > >, COMDAT
; _this$ = ecx

; 1570 :     _Uninitialized_backout_al(pointer _Dest, _Alloc& _Al_) : _First(_Dest), _Last(_Dest), _Al(_Al_) {}

	push	ebp
	mov	ebp, esp
	push	ecx
	mov	DWORD PTR [ebp-4], -858993460		; ccccccccH
	mov	DWORD PTR _this$[ebp], ecx
	mov	eax, DWORD PTR _this$[ebp]
	mov	ecx, DWORD PTR __Dest$[ebp]
	mov	DWORD PTR [eax], ecx
	mov	edx, DWORD PTR _this$[ebp]
	mov	eax, DWORD PTR __Dest$[ebp]
	mov	DWORD PTR [edx+4], eax
	mov	ecx, DWORD PTR _this$[ebp]
	mov	edx, DWORD PTR __Al_$[ebp]
	mov	DWORD PTR [ecx+8], edx
	mov	eax, DWORD PTR _this$[ebp]
	mov	esp, ebp
	pop	ebp
	ret	8
??0?$_Uninitialized_backout_al@V?$allocator@V?$vector@NV?$allocator@N@std@@@std@@@std@@@std@@QAE@PAV?$vector@NV?$allocator@N@std@@@1@AAV?$allocator@V?$vector@NV?$allocator@N@std@@@std@@@1@@Z ENDP ; std::_Uninitialized_backout_al<std::allocator<std::vector<double,std::allocator<double> > > >::_Uninitialized_backout_al<std::allocator<std::vector<double,std::allocator<double> > > >
_TEXT	ENDS
; Function compile flags: /Odtp /RTCsu
; File C:\Program Files (x86)\Microsoft Visual Studio\2019\Community\VC\Tools\MSVC\14.23.28105\include\xutility
;	COMDAT ??$_Get_unwrapped@V?$vector@NV?$allocator@N@std@@@std@@@std@@YAPAV?$vector@NV?$allocator@N@std@@@0@QAV10@@Z
_TEXT	SEGMENT
__Ptr$ = 8						; size = 4
??$_Get_unwrapped@V?$vector@NV?$allocator@N@std@@@std@@@std@@YAPAV?$vector@NV?$allocator@N@std@@@0@QAV10@@Z PROC ; std::_Get_unwrapped<std::vector<double,std::allocator<double> > >, COMDAT

; 275  : _NODISCARD constexpr _Ty* _Get_unwrapped(_Ty* const _Ptr) { // special case already-unwrapped pointers

	push	ebp
	mov	ebp, esp

; 276  :     return _Ptr;

	mov	eax, DWORD PTR __Ptr$[ebp]

; 277  : }

	pop	ebp
	ret	0
??$_Get_unwrapped@V?$vector@NV?$allocator@N@std@@@std@@@std@@YAPAV?$vector@NV?$allocator@N@std@@@0@QAV10@@Z ENDP ; std::_Get_unwrapped<std::vector<double,std::allocator<double> > >
_TEXT	ENDS
; Function compile flags: /Odtp /RTCsu
; File C:\Program Files (x86)\Microsoft Visual Studio\2019\Community\VC\Tools\MSVC\14.23.28105\include\xmemory
;	COMDAT ?deallocate@?$_Default_allocator_traits@V?$allocator@U_Container_proxy@std@@@std@@@std@@SAXAAV?$allocator@U_Container_proxy@std@@@2@QAU_Container_proxy@2@I@Z
_TEXT	SEGMENT
___formal$ = 8						; size = 4
__Ptr$ = 12						; size = 4
__Count$ = 16						; size = 4
?deallocate@?$_Default_allocator_traits@V?$allocator@U_Container_proxy@std@@@std@@@std@@SAXAAV?$allocator@U_Container_proxy@std@@@2@QAU_Container_proxy@2@I@Z PROC ; std::_Default_allocator_traits<std::allocator<std::_Container_proxy> >::deallocate, COMDAT

; 751  :     static void deallocate(_Alloc&, const pointer _Ptr, const size_type _Count) {

	push	ebp
	mov	ebp, esp

; 752  :         // no overflow check on the following multiply; we assume _Allocate did that check
; 753  :         _Deallocate<_New_alignof<value_type>>(_Ptr, sizeof(value_type) * _Count);

	mov	eax, DWORD PTR __Count$[ebp]
	shl	eax, 3
	push	eax
	mov	ecx, DWORD PTR __Ptr$[ebp]
	push	ecx
	call	??$_Deallocate@$07$0A@@std@@YAXPAXI@Z	; std::_Deallocate<8,0>
	add	esp, 8

; 754  :     }

	cmp	ebp, esp
	call	__RTC_CheckEsp
	pop	ebp
	ret	0
?deallocate@?$_Default_allocator_traits@V?$allocator@U_Container_proxy@std@@@std@@@std@@SAXAAV?$allocator@U_Container_proxy@std@@@2@QAU_Container_proxy@2@I@Z ENDP ; std::_Default_allocator_traits<std::allocator<std::_Container_proxy> >::deallocate
_TEXT	ENDS
; Function compile flags: /Odtp /RTCsu
; File C:\Program Files (x86)\Microsoft Visual Studio\2019\Community\VC\Tools\MSVC\14.23.28105\include\xmemory
;	COMDAT ??$_Destroy_range@V?$allocator@N@std@@@std@@YAXPANQANAAV?$allocator@N@0@@Z
_TEXT	SEGMENT
__First$ = 8						; size = 4
__Last$ = 12						; size = 4
__Al$ = 16						; size = 4
??$_Destroy_range@V?$allocator@N@std@@@std@@YAXPANQANAAV?$allocator@N@0@@Z PROC ; std::_Destroy_range<std::allocator<double> >, COMDAT

; 1027 : void _Destroy_range(_Alloc_ptr_t<_Alloc> _First, const _Alloc_ptr_t<_Alloc> _Last, _Alloc& _Al) noexcept {

	push	ebp
	mov	ebp, esp

; 1028 :     // note that this is an optimization for debug mode codegen; in release mode the BE removes all of this
; 1029 :     using _Ty = typename _Alloc::value_type;
; 1030 :     if
; 1031 :         _CONSTEXPR_IF(conjunction_v<is_trivially_destructible<_Ty>, _Uses_default_destroy<_Alloc, _Ty*>>) {
; 1032 :             (void) _First;
; 1033 :             (void) _Last;
; 1034 :             (void) _Al;
; 1035 :         }
; 1036 :     else {
; 1037 :         for (; _First != _Last; ++_First) {
; 1038 :             allocator_traits<_Alloc>::destroy(_Al, _Unfancy(_First));
; 1039 :         }
; 1040 :     }
; 1041 : }

	pop	ebp
	ret	0
??$_Destroy_range@V?$allocator@N@std@@@std@@YAXPANQANAAV?$allocator@N@0@@Z ENDP ; std::_Destroy_range<std::allocator<double> >
_TEXT	ENDS
; Function compile flags: /Odtp /RTCsu
; File C:\Program Files (x86)\Microsoft Visual Studio\2019\Community\VC\Tools\MSVC\14.23.28105\include\vector
;	COMDAT ??$_Ucopy@PAN@?$vector@NV?$allocator@N@std@@@std@@AAEPANPAN00@Z
_TEXT	SEGMENT
_this$ = -4						; size = 4
__First$ = 8						; size = 4
__Last$ = 12						; size = 4
__Dest$ = 16						; size = 4
??$_Ucopy@PAN@?$vector@NV?$allocator@N@std@@@std@@AAEPANPAN00@Z PROC ; std::vector<double,std::allocator<double> >::_Ucopy<double *>, COMDAT
; _this$ = ecx

; 1543 :     pointer _Ucopy(_Iter _First, _Iter _Last, pointer _Dest) { // copy [_First, _Last) to raw _Dest, using allocator

	push	ebp
	mov	ebp, esp
	push	ecx
	mov	DWORD PTR [ebp-4], -858993460		; ccccccccH
	mov	DWORD PTR _this$[ebp], ecx

; 1544 :         return _Uninitialized_copy(_First, _Last, _Dest, _Getal());

	mov	ecx, DWORD PTR _this$[ebp]
	call	?_Getal@?$vector@NV?$allocator@N@std@@@std@@AAEAAV?$allocator@N@2@XZ ; std::vector<double,std::allocator<double> >::_Getal
	push	eax
	mov	eax, DWORD PTR __Dest$[ebp]
	push	eax
	mov	ecx, DWORD PTR __Last$[ebp]
	push	ecx
	mov	edx, DWORD PTR __First$[ebp]
	push	edx
	call	??$_Uninitialized_copy@PANV?$allocator@N@std@@@std@@YAPANQAN0PANAAV?$allocator@N@0@@Z ; std::_Uninitialized_copy<double *,std::allocator<double> >
	add	esp, 16					; 00000010H

; 1545 :     }

	add	esp, 4
	cmp	ebp, esp
	call	__RTC_CheckEsp
	mov	esp, ebp
	pop	ebp
	ret	12					; 0000000cH
??$_Ucopy@PAN@?$vector@NV?$allocator@N@std@@@std@@AAEPANPAN00@Z ENDP ; std::vector<double,std::allocator<double> >::_Ucopy<double *>
_TEXT	ENDS
; Function compile flags: /Odtp /RTCsu
; File C:\Program Files (x86)\Microsoft Visual Studio\2019\Community\VC\Tools\MSVC\14.23.28105\include\xutility
;	COMDAT ??1?$_Tidy_guard@V?$vector@NV?$allocator@N@std@@@std@@@std@@QAE@XZ
_TEXT	SEGMENT
_this$ = -4						; size = 4
??1?$_Tidy_guard@V?$vector@NV?$allocator@N@std@@@std@@@std@@QAE@XZ PROC ; std::_Tidy_guard<std::vector<double,std::allocator<double> > >::~_Tidy_guard<std::vector<double,std::allocator<double> > >, COMDAT
; _this$ = ecx

; 3526 :     ~_Tidy_guard() {

	push	ebp
	mov	ebp, esp
	push	ecx
	mov	DWORD PTR [ebp-4], -858993460		; ccccccccH
	mov	DWORD PTR _this$[ebp], ecx

; 3527 :         if (_Target) {

	mov	eax, DWORD PTR _this$[ebp]
	cmp	DWORD PTR [eax], 0
	je	SHORT $LN3@Tidy_guard

; 3528 :             _Target->_Tidy();

	mov	ecx, DWORD PTR _this$[ebp]
	mov	ecx, DWORD PTR [ecx]
	call	?_Tidy@?$vector@NV?$allocator@N@std@@@std@@AAEXXZ ; std::vector<double,std::allocator<double> >::_Tidy
$LN3@Tidy_guard:

; 3529 :         }
; 3530 :     }

	add	esp, 4
	cmp	ebp, esp
	call	__RTC_CheckEsp
	mov	esp, ebp
	pop	ebp
	ret	0
??1?$_Tidy_guard@V?$vector@NV?$allocator@N@std@@@std@@@std@@QAE@XZ ENDP ; std::_Tidy_guard<std::vector<double,std::allocator<double> > >::~_Tidy_guard<std::vector<double,std::allocator<double> > >
_TEXT	ENDS
; Function compile flags: /Odtp /RTCsu
; File C:\Program Files (x86)\Microsoft Visual Studio\2019\Community\VC\Tools\MSVC\14.23.28105\include\xmemory
;	COMDAT ??$?0N@?$allocator@U_Container_proxy@std@@@std@@QAE@ABV?$allocator@N@1@@Z
_TEXT	SEGMENT
_this$ = -4						; size = 4
___formal$ = 8						; size = 4
??$?0N@?$allocator@U_Container_proxy@std@@@std@@QAE@ABV?$allocator@N@1@@Z PROC ; std::allocator<std::_Container_proxy>::allocator<std::_Container_proxy><double>, COMDAT
; _this$ = ecx

; 863  :     constexpr allocator(const allocator<_Other>&) noexcept {}

	push	ebp
	mov	ebp, esp
	push	ecx
	mov	DWORD PTR [ebp-4], -858993460		; ccccccccH
	mov	DWORD PTR _this$[ebp], ecx
	mov	eax, DWORD PTR _this$[ebp]
	mov	esp, ebp
	pop	ebp
	ret	4
??$?0N@?$allocator@U_Container_proxy@std@@@std@@QAE@ABV?$allocator@N@1@@Z ENDP ; std::allocator<std::_Container_proxy>::allocator<std::_Container_proxy><double>
_TEXT	ENDS
; Function compile flags: /Odtp /RTCsu
; File C:\Program Files (x86)\Microsoft Visual Studio\2019\Community\VC\Tools\MSVC\14.23.28105\include\xmemory
;	COMDAT ??$?0V?$allocator@N@std@@$$V@?$_Compressed_pair@V?$allocator@N@std@@V?$_Vector_val@U?$_Simple_types@N@std@@@2@$00@std@@QAE@U_One_then_variadic_args_t@1@$$QAV?$allocator@N@1@@Z
_TEXT	SEGMENT
_this$ = -4						; size = 4
___formal$ = 8						; size = 1
__Val1$ = 12						; size = 4
??$?0V?$allocator@N@std@@$$V@?$_Compressed_pair@V?$allocator@N@std@@V?$_Vector_val@U?$_Simple_types@N@std@@@2@$00@std@@QAE@U_One_then_variadic_args_t@1@$$QAV?$allocator@N@1@@Z PROC ; std::_Compressed_pair<std::allocator<double>,std::_Vector_val<std::_Simple_types<double> >,1>::_Compressed_pair<std::allocator<double>,std::_Vector_val<std::_Simple_types<double> >,1><std::allocator<double> >, COMDAT
; _this$ = ecx

; 1418 :         : _Ty1(_STD forward<_Other1>(_Val1)), _Myval2(_STD forward<_Other2>(_Val2)...) {}

	push	ebp
	mov	ebp, esp
	push	ecx
	mov	DWORD PTR [ebp-4], -858993460		; ccccccccH
	mov	DWORD PTR _this$[ebp], ecx
	mov	eax, DWORD PTR __Val1$[ebp]
	push	eax
	call	??$forward@V?$allocator@N@std@@@std@@YA$$QAV?$allocator@N@0@AAV10@@Z ; std::forward<std::allocator<double> >
	add	esp, 4
	mov	ecx, DWORD PTR _this$[ebp]
	call	??0?$_Vector_val@U?$_Simple_types@N@std@@@std@@QAE@XZ ; std::_Vector_val<std::_Simple_types<double> >::_Vector_val<std::_Simple_types<double> >
	mov	eax, DWORD PTR _this$[ebp]
	add	esp, 4
	cmp	ebp, esp
	call	__RTC_CheckEsp
	mov	esp, ebp
	pop	ebp
	ret	8
??$?0V?$allocator@N@std@@$$V@?$_Compressed_pair@V?$allocator@N@std@@V?$_Vector_val@U?$_Simple_types@N@std@@@2@$00@std@@QAE@U_One_then_variadic_args_t@1@$$QAV?$allocator@N@1@@Z ENDP ; std::_Compressed_pair<std::allocator<double>,std::_Vector_val<std::_Simple_types<double> >,1>::_Compressed_pair<std::allocator<double>,std::_Vector_val<std::_Simple_types<double> >,1><std::allocator<double> >
_TEXT	ENDS
; Function compile flags: /Odtp /RTCsu
; File C:\Program Files (x86)\Microsoft Visual Studio\2019\Community\VC\Tools\MSVC\14.23.28105\include\xmemory
;	COMDAT ??$_Uninitialized_move@PAV?$vector@NV?$allocator@N@std@@@std@@V?$allocator@V?$vector@NV?$allocator@N@std@@@std@@@2@@std@@YAPAV?$vector@NV?$allocator@N@std@@@0@QAV10@0PAV10@AAV?$allocator@V?$vector@NV?$allocator@N@std@@@std@@@0@@Z
_TEXT	SEGMENT
$T2 = -44						; size = 4
__Backout$3 = -36					; size = 12
__ULast$ = -20						; size = 4
__UFirst$ = -16						; size = 4
__$EHRec$ = -12						; size = 12
__First$ = 8						; size = 4
__Last$ = 12						; size = 4
__Dest$ = 16						; size = 4
__Al$ = 20						; size = 4
??$_Uninitialized_move@PAV?$vector@NV?$allocator@N@std@@@std@@V?$allocator@V?$vector@NV?$allocator@N@std@@@std@@@2@@std@@YAPAV?$vector@NV?$allocator@N@std@@@0@QAV10@0PAV10@AAV?$allocator@V?$vector@NV?$allocator@N@std@@@std@@@0@@Z PROC ; std::_Uninitialized_move<std::vector<double,std::allocator<double> > *,std::allocator<std::vector<double,std::allocator<double> > > >, COMDAT

; 1729 :     const _InIt _First, const _InIt _Last, _Alloc_ptr_t<_Alloc> _Dest, _Alloc& _Al) {

	push	ebp
	mov	ebp, esp
	push	-1
	push	__ehhandler$??$_Uninitialized_move@PAV?$vector@NV?$allocator@N@std@@@std@@V?$allocator@V?$vector@NV?$allocator@N@std@@@std@@@2@@std@@YAPAV?$vector@NV?$allocator@N@std@@@0@QAV10@0PAV10@AAV?$allocator@V?$vector@NV?$allocator@N@std@@@std@@@0@@Z
	mov	eax, DWORD PTR fs:0
	push	eax
	sub	esp, 32					; 00000020H
	mov	eax, -858993460				; ccccccccH
	mov	DWORD PTR [ebp-44], eax
	mov	DWORD PTR [ebp-40], eax
	mov	DWORD PTR [ebp-36], eax
	mov	DWORD PTR [ebp-32], eax
	mov	DWORD PTR [ebp-28], eax
	mov	DWORD PTR [ebp-24], eax
	mov	DWORD PTR [ebp-20], eax
	mov	DWORD PTR [ebp-16], eax
	mov	eax, DWORD PTR ___security_cookie
	xor	eax, ebp
	push	eax
	lea	eax, DWORD PTR __$EHRec$[ebp]
	mov	DWORD PTR fs:0, eax

; 1730 :     // move [_First, _Last) to raw _Dest, using _Al
; 1731 :     // note: only called internally from elsewhere in the STL
; 1732 :     using _Ptrval     = typename _Alloc::value_type*;
; 1733 :     auto _UFirst      = _Get_unwrapped(_First);

	mov	eax, DWORD PTR __First$[ebp]
	push	eax
	call	??$_Get_unwrapped@V?$vector@NV?$allocator@N@std@@@std@@@std@@YAPAV?$vector@NV?$allocator@N@std@@@0@QAV10@@Z ; std::_Get_unwrapped<std::vector<double,std::allocator<double> > >
	add	esp, 4
	mov	DWORD PTR __UFirst$[ebp], eax

; 1734 :     const auto _ULast = _Get_unwrapped(_Last);

	mov	ecx, DWORD PTR __Last$[ebp]
	push	ecx
	call	??$_Get_unwrapped@V?$vector@NV?$allocator@N@std@@@std@@@std@@YAPAV?$vector@NV?$allocator@N@std@@@0@QAV10@@Z ; std::_Get_unwrapped<std::vector<double,std::allocator<double> > >
	add	esp, 4
	mov	DWORD PTR __ULast$[ebp], eax

; 1735 :     if constexpr (conjunction_v<bool_constant<_Ptr_move_cat<decltype(_UFirst), _Ptrval>::_Really_trivial>,
; 1736 :                       _Uses_default_construct<_Alloc, _Ptrval, decltype(_STD move(*_UFirst))>>) {
; 1737 :         _Copy_memmove(_UFirst, _ULast, _Unfancy(_Dest));
; 1738 :         return _Dest + (_ULast - _UFirst);
; 1739 :         (void) _Al;
; 1740 :     } else {
; 1741 :         _Uninitialized_backout_al<_Alloc> _Backout{_Dest, _Al};

	mov	edx, DWORD PTR __Al$[ebp]
	push	edx
	mov	eax, DWORD PTR __Dest$[ebp]
	push	eax
	lea	ecx, DWORD PTR __Backout$3[ebp]
	call	??0?$_Uninitialized_backout_al@V?$allocator@V?$vector@NV?$allocator@N@std@@@std@@@std@@@std@@QAE@PAV?$vector@NV?$allocator@N@std@@@1@AAV?$allocator@V?$vector@NV?$allocator@N@std@@@std@@@1@@Z ; std::_Uninitialized_backout_al<std::allocator<std::vector<double,std::allocator<double> > > >::_Uninitialized_backout_al<std::allocator<std::vector<double,std::allocator<double> > > >
	mov	DWORD PTR __$EHRec$[ebp+8], 0

; 1742 :         for (; _UFirst != _ULast; ++_UFirst) {

	jmp	SHORT $LN4@Uninitiali
$LN2@Uninitiali:
	mov	ecx, DWORD PTR __UFirst$[ebp]
	add	ecx, 16					; 00000010H
	mov	DWORD PTR __UFirst$[ebp], ecx
$LN4@Uninitiali:
	mov	edx, DWORD PTR __UFirst$[ebp]
	cmp	edx, DWORD PTR __ULast$[ebp]
	je	SHORT $LN3@Uninitiali

; 1743 :             _Backout._Emplace_back(_STD move(*_UFirst));

	mov	eax, DWORD PTR __UFirst$[ebp]
	push	eax
	call	??$move@AAV?$vector@NV?$allocator@N@std@@@std@@@std@@YA$$QAV?$vector@NV?$allocator@N@std@@@0@AAV10@@Z ; std::move<std::vector<double,std::allocator<double> > &>
	add	esp, 4
	push	eax
	lea	ecx, DWORD PTR __Backout$3[ebp]
	call	??$_Emplace_back@V?$vector@NV?$allocator@N@std@@@std@@@?$_Uninitialized_backout_al@V?$allocator@V?$vector@NV?$allocator@N@std@@@std@@@std@@@std@@QAEX$$QAV?$vector@NV?$allocator@N@std@@@1@@Z ; std::_Uninitialized_backout_al<std::allocator<std::vector<double,std::allocator<double> > > >::_Emplace_back<std::vector<double,std::allocator<double> > >

; 1744 :         }

	jmp	SHORT $LN2@Uninitiali
$LN3@Uninitiali:

; 1745 : 
; 1746 :         return _Backout._Release();

	lea	ecx, DWORD PTR __Backout$3[ebp]
	call	?_Release@?$_Uninitialized_backout_al@V?$allocator@V?$vector@NV?$allocator@N@std@@@std@@@std@@@std@@QAEPAV?$vector@NV?$allocator@N@std@@@2@XZ ; std::_Uninitialized_backout_al<std::allocator<std::vector<double,std::allocator<double> > > >::_Release
	mov	DWORD PTR $T2[ebp], eax
	mov	DWORD PTR __$EHRec$[ebp+8], -1
	lea	ecx, DWORD PTR __Backout$3[ebp]
	call	??1?$_Uninitialized_backout_al@V?$allocator@V?$vector@NV?$allocator@N@std@@@std@@@std@@@std@@QAE@XZ ; std::_Uninitialized_backout_al<std::allocator<std::vector<double,std::allocator<double> > > >::~_Uninitialized_backout_al<std::allocator<std::vector<double,std::allocator<double> > > >
	mov	eax, DWORD PTR $T2[ebp]

; 1747 :     }
; 1748 : }

	push	edx
	mov	ecx, ebp
	push	eax
	lea	edx, DWORD PTR $LN10@Uninitiali
	call	@_RTC_CheckStackVars@8
	pop	eax
	pop	edx
	mov	ecx, DWORD PTR __$EHRec$[ebp]
	mov	DWORD PTR fs:0, ecx
	pop	ecx
	add	esp, 44					; 0000002cH
	cmp	ebp, esp
	call	__RTC_CheckEsp
	mov	esp, ebp
	pop	ebp
	ret	0
$LN10@Uninitiali:
	DD	1
	DD	$LN9@Uninitiali
$LN9@Uninitiali:
	DD	-36					; ffffffdcH
	DD	12					; 0000000cH
	DD	$LN7@Uninitiali
$LN7@Uninitiali:
	DB	95					; 0000005fH
	DB	66					; 00000042H
	DB	97					; 00000061H
	DB	99					; 00000063H
	DB	107					; 0000006bH
	DB	111					; 0000006fH
	DB	117					; 00000075H
	DB	116					; 00000074H
	DB	0
_TEXT	ENDS
;	COMDAT text$x
text$x	SEGMENT
__unwindfunclet$??$_Uninitialized_move@PAV?$vector@NV?$allocator@N@std@@@std@@V?$allocator@V?$vector@NV?$allocator@N@std@@@std@@@2@@std@@YAPAV?$vector@NV?$allocator@N@std@@@0@QAV10@0PAV10@AAV?$allocator@V?$vector@NV?$allocator@N@std@@@std@@@0@@Z$0:
	lea	ecx, DWORD PTR __Backout$3[ebp]
	jmp	??1?$_Uninitialized_backout_al@V?$allocator@V?$vector@NV?$allocator@N@std@@@std@@@std@@@std@@QAE@XZ ; std::_Uninitialized_backout_al<std::allocator<std::vector<double,std::allocator<double> > > >::~_Uninitialized_backout_al<std::allocator<std::vector<double,std::allocator<double> > > >
__ehhandler$??$_Uninitialized_move@PAV?$vector@NV?$allocator@N@std@@@std@@V?$allocator@V?$vector@NV?$allocator@N@std@@@std@@@2@@std@@YAPAV?$vector@NV?$allocator@N@std@@@0@QAV10@0PAV10@AAV?$allocator@V?$vector@NV?$allocator@N@std@@@std@@@0@@Z:
	mov	edx, DWORD PTR [esp+8]
	lea	eax, DWORD PTR [edx+12]
	mov	ecx, DWORD PTR [edx-36]
	xor	ecx, eax
	call	@__security_check_cookie@4
	mov	eax, OFFSET __ehfuncinfo$??$_Uninitialized_move@PAV?$vector@NV?$allocator@N@std@@@std@@V?$allocator@V?$vector@NV?$allocator@N@std@@@std@@@2@@std@@YAPAV?$vector@NV?$allocator@N@std@@@0@QAV10@0PAV10@AAV?$allocator@V?$vector@NV?$allocator@N@std@@@std@@@0@@Z
	jmp	___CxxFrameHandler3
text$x	ENDS
??$_Uninitialized_move@PAV?$vector@NV?$allocator@N@std@@@std@@V?$allocator@V?$vector@NV?$allocator@N@std@@@std@@@2@@std@@YAPAV?$vector@NV?$allocator@N@std@@@0@QAV10@0PAV10@AAV?$allocator@V?$vector@NV?$allocator@N@std@@@std@@@0@@Z ENDP ; std::_Uninitialized_move<std::vector<double,std::allocator<double> > *,std::allocator<std::vector<double,std::allocator<double> > > >
; Function compile flags: /Odtp /RTCsu
; File C:\Program Files (x86)\Microsoft Visual Studio\2019\Community\VC\Tools\MSVC\14.23.28105\include\xmemory
;	COMDAT ??$destroy@V?$vector@NV?$allocator@N@std@@@std@@@?$_Default_allocator_traits@V?$allocator@V?$vector@NV?$allocator@N@std@@@std@@@std@@@std@@SAXAAV?$allocator@V?$vector@NV?$allocator@N@std@@@std@@@1@QAV?$vector@NV?$allocator@N@std@@@1@@Z
_TEXT	SEGMENT
___formal$ = 8						; size = 4
__Ptr$ = 12						; size = 4
??$destroy@V?$vector@NV?$allocator@N@std@@@std@@@?$_Default_allocator_traits@V?$allocator@V?$vector@NV?$allocator@N@std@@@std@@@std@@@std@@SAXAAV?$allocator@V?$vector@NV?$allocator@N@std@@@std@@@1@QAV?$vector@NV?$allocator@N@std@@@1@@Z PROC ; std::_Default_allocator_traits<std::allocator<std::vector<double,std::allocator<double> > > >::destroy<std::vector<double,std::allocator<double> > >, COMDAT

; 762  :     static void destroy(_Alloc&, _Uty* const _Ptr) {

	push	ebp
	mov	ebp, esp

; 763  :         _Ptr->~_Uty();

	push	0
	mov	ecx, DWORD PTR __Ptr$[ebp]
	call	??_G?$vector@NV?$allocator@N@std@@@std@@QAEPAXI@Z

; 764  :     }

	cmp	ebp, esp
	call	__RTC_CheckEsp
	pop	ebp
	ret	0
??$destroy@V?$vector@NV?$allocator@N@std@@@std@@@?$_Default_allocator_traits@V?$allocator@V?$vector@NV?$allocator@N@std@@@std@@@std@@@std@@SAXAAV?$allocator@V?$vector@NV?$allocator@N@std@@@std@@@1@QAV?$vector@NV?$allocator@N@std@@@1@@Z ENDP ; std::_Default_allocator_traits<std::allocator<std::vector<double,std::allocator<double> > > >::destroy<std::vector<double,std::allocator<double> > >
_TEXT	ENDS
; Function compile flags: /Odtp /RTCsu
; File C:\Program Files (x86)\Microsoft Visual Studio\2019\Community\VC\Tools\MSVC\14.23.28105\include\xmemory
;	COMDAT ??$_Allocate_manually_vector_aligned@U_Default_allocate_traits@std@@@std@@YAPAXI@Z
_TEXT	SEGMENT
__Ptr$ = -12						; size = 4
__Ptr_container$ = -8					; size = 4
__Block_size$ = -4					; size = 4
__Bytes$ = 8						; size = 4
??$_Allocate_manually_vector_aligned@U_Default_allocate_traits@std@@@std@@YAPAXI@Z PROC ; std::_Allocate_manually_vector_aligned<std::_Default_allocate_traits>, COMDAT

; 83   : _DECLSPEC_ALLOCATOR void* _Allocate_manually_vector_aligned(const size_t _Bytes) {

	push	ebp
	mov	ebp, esp
	sub	esp, 12					; 0000000cH
	mov	DWORD PTR [ebp-12], -858993460		; ccccccccH
	mov	DWORD PTR [ebp-8], -858993460		; ccccccccH
	mov	DWORD PTR [ebp-4], -858993460		; ccccccccH

; 84   :     // allocate _Bytes manually aligned to at least _Big_allocation_alignment
; 85   :     const size_t _Block_size = _Non_user_size + _Bytes;

	mov	eax, DWORD PTR __Bytes$[ebp]
	add	eax, 39					; 00000027H
	mov	DWORD PTR __Block_size$[ebp], eax

; 86   :     if (_Block_size <= _Bytes) {

	mov	ecx, DWORD PTR __Block_size$[ebp]
	cmp	ecx, DWORD PTR __Bytes$[ebp]
	ja	SHORT $LN8@Allocate_m

; 87   :         _Throw_bad_array_new_length(); // add overflow

	call	?_Throw_bad_array_new_length@std@@YAXXZ	; std::_Throw_bad_array_new_length
$LN8@Allocate_m:

; 88   :     }
; 89   : 
; 90   :     const uintptr_t _Ptr_container = reinterpret_cast<uintptr_t>(_Traits::_Allocate(_Block_size));

	mov	edx, DWORD PTR __Block_size$[ebp]
	push	edx
	call	?_Allocate@_Default_allocate_traits@std@@SAPAXI@Z ; std::_Default_allocate_traits::_Allocate
	add	esp, 4
	mov	DWORD PTR __Ptr_container$[ebp], eax
$LN4@Allocate_m:

; 91   :     _STL_VERIFY(_Ptr_container != 0, "invalid argument"); // validate even in release since we're doing p[-1]

	cmp	DWORD PTR __Ptr_container$[ebp], 0
	je	SHORT $LN7@Allocate_m
	jmp	SHORT $LN2@Allocate_m
$LN7@Allocate_m:
	push	OFFSET $SG157947
	push	OFFSET $SG157948
	push	0
	push	91					; 0000005bH
	push	OFFSET $SG157949
	push	2
	call	__CrtDbgReport
	add	esp, 24					; 00000018H
	cmp	eax, 1
	jne	SHORT $LN12@Allocate_m
	int	3
$LN12@Allocate_m:
	push	0
	push	91					; 0000005bH
	push	OFFSET $SG157950
	push	OFFSET $SG157951
	push	OFFSET $SG157952
	call	__invalid_parameter
	add	esp, 20					; 00000014H
	xor	ecx, ecx
	jne	SHORT $LN7@Allocate_m
$LN2@Allocate_m:
	xor	edx, edx
	jne	SHORT $LN4@Allocate_m

; 92   :     void* const _Ptr = reinterpret_cast<void*>((_Ptr_container + _Non_user_size) & ~(_Big_allocation_alignment - 1));

	mov	eax, DWORD PTR __Ptr_container$[ebp]
	add	eax, 39					; 00000027H
	and	eax, -32				; ffffffe0H
	mov	DWORD PTR __Ptr$[ebp], eax

; 93   :     static_cast<uintptr_t*>(_Ptr)[-1] = _Ptr_container;

	mov	ecx, 4
	imul	edx, ecx, -1
	mov	eax, DWORD PTR __Ptr$[ebp]
	mov	ecx, DWORD PTR __Ptr_container$[ebp]
	mov	DWORD PTR [eax+edx], ecx

; 94   : 
; 95   : #ifdef _DEBUG
; 96   :     static_cast<uintptr_t*>(_Ptr)[-2] = _Big_allocation_sentinel;

	mov	edx, 4
	imul	eax, edx, -2
	mov	ecx, DWORD PTR __Ptr$[ebp]
	mov	DWORD PTR [ecx+eax], -84215046		; fafafafaH

; 97   : #endif // _DEBUG
; 98   :     return _Ptr;

	mov	eax, DWORD PTR __Ptr$[ebp]
$LN11@Allocate_m:

; 99   : }

	add	esp, 12					; 0000000cH
	cmp	ebp, esp
	call	__RTC_CheckEsp
	mov	esp, ebp
	pop	ebp
	ret	0
??$_Allocate_manually_vector_aligned@U_Default_allocate_traits@std@@@std@@YAPAXI@Z ENDP ; std::_Allocate_manually_vector_aligned<std::_Default_allocate_traits>
_TEXT	ENDS
; Function compile flags: /Odtp /RTCsu
; File C:\Program Files (x86)\Microsoft Visual Studio\2019\Community\VC\Tools\MSVC\14.23.28105\include\type_traits
;	COMDAT ??$forward@PAU_Container_base12@std@@@std@@YA$$QAPAU_Container_base12@0@AAPAU10@@Z
_TEXT	SEGMENT
__Arg$ = 8						; size = 4
??$forward@PAU_Container_base12@std@@@std@@YA$$QAPAU_Container_base12@0@AAPAU10@@Z PROC ; std::forward<std::_Container_base12 *>, COMDAT

; 1420 :     remove_reference_t<_Ty>& _Arg) noexcept { // forward an lvalue as either an lvalue or an rvalue

	push	ebp
	mov	ebp, esp

; 1421 :     return static_cast<_Ty&&>(_Arg);

	mov	eax, DWORD PTR __Arg$[ebp]

; 1422 : }

	pop	ebp
	ret	0
??$forward@PAU_Container_base12@std@@@std@@YA$$QAPAU_Container_base12@0@AAPAU10@@Z ENDP ; std::forward<std::_Container_base12 *>
_TEXT	ENDS
; Function compile flags: /Odtp /RTCsu
; File C:\Program Files (x86)\Microsoft Visual Studio\2019\Community\VC\Tools\MSVC\14.23.28105\include\xstddef
;	COMDAT ??$addressof@U_Container_proxy@std@@@std@@YAPAU_Container_proxy@0@AAU10@@Z
_TEXT	SEGMENT
__Val$ = 8						; size = 4
??$addressof@U_Container_proxy@std@@@std@@YAPAU_Container_proxy@0@AAU10@@Z PROC ; std::addressof<std::_Container_proxy>, COMDAT

; 279  : _NODISCARD constexpr _Ty* addressof(_Ty& _Val) noexcept { // return address of _Val

	push	ebp
	mov	ebp, esp

; 280  :     return __builtin_addressof(_Val);

	mov	eax, DWORD PTR __Val$[ebp]

; 281  : }

	pop	ebp
	ret	0
??$addressof@U_Container_proxy@std@@@std@@YAPAU_Container_proxy@0@AAU10@@Z ENDP ; std::addressof<std::_Container_proxy>
_TEXT	ENDS
; Function compile flags: /Odtp /RTCsu
; File C:\Program Files (x86)\Microsoft Visual Studio\2019\Community\VC\Tools\MSVC\14.23.28105\include\xmemory
;	COMDAT ??$_Deallocate_plain@V?$allocator@U_Container_proxy@std@@@std@@@std@@YAXAAV?$allocator@U_Container_proxy@std@@@0@QAU_Container_proxy@0@@Z
_TEXT	SEGMENT
__$EHRec$ = -12						; size = 12
__Al$ = 8						; size = 4
__Ptr$ = 12						; size = 4
??$_Deallocate_plain@V?$allocator@U_Container_proxy@std@@@std@@@std@@YAXAAV?$allocator@U_Container_proxy@std@@@0@QAU_Container_proxy@0@@Z PROC ; std::_Deallocate_plain<std::allocator<std::_Container_proxy> >, COMDAT

; 1081 : void _Deallocate_plain(_Alloc& _Al, typename _Alloc::value_type* const _Ptr) noexcept {

	push	ebp
	mov	ebp, esp
	push	-1
	push	__ehhandler$??$_Deallocate_plain@V?$allocator@U_Container_proxy@std@@@std@@@std@@YAXAAV?$allocator@U_Container_proxy@std@@@0@QAU_Container_proxy@0@@Z
	mov	eax, DWORD PTR fs:0
	push	eax
	mov	eax, DWORD PTR ___security_cookie
	xor	eax, ebp
	push	eax
	lea	eax, DWORD PTR __$EHRec$[ebp]
	mov	DWORD PTR fs:0, eax

; 1082 :     // deallocate a plain pointer using an allocator
; 1083 :     using _Alloc_traits = allocator_traits<_Alloc>;
; 1084 :     if constexpr (is_same_v<_Alloc_ptr_t<_Alloc>, typename _Alloc::value_type*>) {
; 1085 :         _Alloc_traits::deallocate(_Al, _Ptr, 1);

	push	1
	mov	eax, DWORD PTR __Ptr$[ebp]
	push	eax
	mov	ecx, DWORD PTR __Al$[ebp]
	push	ecx
	call	?deallocate@?$_Default_allocator_traits@V?$allocator@U_Container_proxy@std@@@std@@@std@@SAXAAV?$allocator@U_Container_proxy@std@@@2@QAU_Container_proxy@2@I@Z ; std::_Default_allocator_traits<std::allocator<std::_Container_proxy> >::deallocate
	add	esp, 12					; 0000000cH

; 1086 :     } else {
; 1087 :         using _Ptr_traits = pointer_traits<_Alloc_ptr_t<_Alloc>>;
; 1088 :         _Alloc_traits::deallocate(_Al, _Ptr_traits::pointer_to(*_Ptr), 1);
; 1089 :     }
; 1090 : }

	mov	ecx, DWORD PTR __$EHRec$[ebp]
	mov	DWORD PTR fs:0, ecx
	pop	ecx
	add	esp, 12					; 0000000cH
	cmp	ebp, esp
	call	__RTC_CheckEsp
	mov	esp, ebp
	pop	ebp
	ret	0
_TEXT	ENDS
;	COMDAT text$x
text$x	SEGMENT
__ehhandler$??$_Deallocate_plain@V?$allocator@U_Container_proxy@std@@@std@@@std@@YAXAAV?$allocator@U_Container_proxy@std@@@0@QAU_Container_proxy@0@@Z:
	mov	edx, DWORD PTR [esp+8]
	lea	eax, DWORD PTR [edx+12]
	mov	ecx, DWORD PTR [edx-4]
	xor	ecx, eax
	call	@__security_check_cookie@4
	mov	eax, OFFSET __ehfuncinfo$??$_Deallocate_plain@V?$allocator@U_Container_proxy@std@@@std@@@std@@YAXAAV?$allocator@U_Container_proxy@std@@@0@QAU_Container_proxy@0@@Z
	jmp	___CxxFrameHandler3
text$x	ENDS
??$_Deallocate_plain@V?$allocator@U_Container_proxy@std@@@std@@@std@@YAXAAV?$allocator@U_Container_proxy@std@@@0@QAU_Container_proxy@0@@Z ENDP ; std::_Deallocate_plain<std::allocator<std::_Container_proxy> >
; Function compile flags: /Odtp /RTCsu
; File C:\Program Files (x86)\Microsoft Visual Studio\2019\Community\VC\Tools\MSVC\14.23.28105\include\xmemory
;	COMDAT ??$_Get_size_of_n@$0BA@@std@@YAII@Z
_TEXT	SEGMENT
__Max_possible$1 = -8					; size = 4
__Overflow_is_possible$ = -1				; size = 1
__Count$ = 8						; size = 4
??$_Get_size_of_n@$0BA@@std@@YAII@Z PROC		; std::_Get_size_of_n<16>, COMDAT

; 24   : _NODISCARD constexpr size_t _Get_size_of_n(const size_t _Count) {

	push	ebp
	mov	ebp, esp
	sub	esp, 8
	mov	DWORD PTR [ebp-8], -858993460		; ccccccccH
	mov	DWORD PTR [ebp-4], -858993460		; ccccccccH

; 25   :     constexpr bool _Overflow_is_possible = _Ty_size > 1;

	mov	BYTE PTR __Overflow_is_possible$[ebp], 1

; 26   : 
; 27   :     if
; 28   :         _CONSTEXPR_IF(_Overflow_is_possible) {
; 29   :             constexpr size_t _Max_possible = static_cast<size_t>(-1) / _Ty_size;

	mov	DWORD PTR __Max_possible$1[ebp], 268435455 ; 0fffffffH

; 30   :             if (_Count > _Max_possible) {

	cmp	DWORD PTR __Count$[ebp], 268435455	; 0fffffffH
	jbe	SHORT $LN2@Get_size_o

; 31   :                 _Throw_bad_array_new_length(); // multiply overflow

	call	?_Throw_bad_array_new_length@std@@YAXXZ	; std::_Throw_bad_array_new_length
$LN2@Get_size_o:

; 32   :             }
; 33   :         }
; 34   : 
; 35   :     return _Count * _Ty_size;

	mov	eax, DWORD PTR __Count$[ebp]
	shl	eax, 4
$LN3@Get_size_o:

; 36   : }

	add	esp, 8
	cmp	ebp, esp
	call	__RTC_CheckEsp
	mov	esp, ebp
	pop	ebp
	ret	0
??$_Get_size_of_n@$0BA@@std@@YAII@Z ENDP		; std::_Get_size_of_n<16>
_TEXT	ENDS
; Function compile flags: /Odtp /RTCsu
; File C:\Program Files (x86)\Microsoft Visual Studio\2019\Community\VC\Tools\MSVC\14.23.28105\include\xmemory
;	COMDAT ??$_Destroy_range@V?$allocator@V?$vector@NV?$allocator@N@std@@@std@@@std@@@std@@YAXPAV?$vector@NV?$allocator@N@std@@@0@QAV10@AAV?$allocator@V?$vector@NV?$allocator@N@std@@@std@@@0@@Z
_TEXT	SEGMENT
__$EHRec$ = -12						; size = 12
__First$ = 8						; size = 4
__Last$ = 12						; size = 4
__Al$ = 16						; size = 4
??$_Destroy_range@V?$allocator@V?$vector@NV?$allocator@N@std@@@std@@@std@@@std@@YAXPAV?$vector@NV?$allocator@N@std@@@0@QAV10@AAV?$allocator@V?$vector@NV?$allocator@N@std@@@std@@@0@@Z PROC ; std::_Destroy_range<std::allocator<std::vector<double,std::allocator<double> > > >, COMDAT

; 1027 : void _Destroy_range(_Alloc_ptr_t<_Alloc> _First, const _Alloc_ptr_t<_Alloc> _Last, _Alloc& _Al) noexcept {

	push	ebp
	mov	ebp, esp
	push	-1
	push	__ehhandler$??$_Destroy_range@V?$allocator@V?$vector@NV?$allocator@N@std@@@std@@@std@@@std@@YAXPAV?$vector@NV?$allocator@N@std@@@0@QAV10@AAV?$allocator@V?$vector@NV?$allocator@N@std@@@std@@@0@@Z
	mov	eax, DWORD PTR fs:0
	push	eax
	mov	eax, DWORD PTR ___security_cookie
	xor	eax, ebp
	push	eax
	lea	eax, DWORD PTR __$EHRec$[ebp]
	mov	DWORD PTR fs:0, eax

; 1028 :     // note that this is an optimization for debug mode codegen; in release mode the BE removes all of this
; 1029 :     using _Ty = typename _Alloc::value_type;
; 1030 :     if
; 1031 :         _CONSTEXPR_IF(conjunction_v<is_trivially_destructible<_Ty>, _Uses_default_destroy<_Alloc, _Ty*>>) {
; 1032 :             (void) _First;
; 1033 :             (void) _Last;
; 1034 :             (void) _Al;
; 1035 :         }
; 1036 :     else {
; 1037 :         for (; _First != _Last; ++_First) {

	jmp	SHORT $LN4@Destroy_ra
$LN2@Destroy_ra:
	mov	eax, DWORD PTR __First$[ebp]
	add	eax, 16					; 00000010H
	mov	DWORD PTR __First$[ebp], eax
$LN4@Destroy_ra:
	mov	ecx, DWORD PTR __First$[ebp]
	cmp	ecx, DWORD PTR __Last$[ebp]
	je	SHORT $LN5@Destroy_ra

; 1038 :             allocator_traits<_Alloc>::destroy(_Al, _Unfancy(_First));

	mov	edx, DWORD PTR __First$[ebp]
	push	edx
	call	??$_Unfancy@V?$vector@NV?$allocator@N@std@@@std@@@std@@YAPAV?$vector@NV?$allocator@N@std@@@0@PAV10@@Z ; std::_Unfancy<std::vector<double,std::allocator<double> > >
	add	esp, 4
	push	eax
	mov	eax, DWORD PTR __Al$[ebp]
	push	eax
	call	??$destroy@V?$vector@NV?$allocator@N@std@@@std@@@?$_Default_allocator_traits@V?$allocator@V?$vector@NV?$allocator@N@std@@@std@@@std@@@std@@SAXAAV?$allocator@V?$vector@NV?$allocator@N@std@@@std@@@1@QAV?$vector@NV?$allocator@N@std@@@1@@Z ; std::_Default_allocator_traits<std::allocator<std::vector<double,std::allocator<double> > > >::destroy<std::vector<double,std::allocator<double> > >
	add	esp, 8

; 1039 :         }

	jmp	SHORT $LN2@Destroy_ra
$LN5@Destroy_ra:

; 1040 :     }
; 1041 : }

	mov	ecx, DWORD PTR __$EHRec$[ebp]
	mov	DWORD PTR fs:0, ecx
	pop	ecx
	add	esp, 12					; 0000000cH
	cmp	ebp, esp
	call	__RTC_CheckEsp
	mov	esp, ebp
	pop	ebp
	ret	0
_TEXT	ENDS
;	COMDAT text$x
text$x	SEGMENT
__ehhandler$??$_Destroy_range@V?$allocator@V?$vector@NV?$allocator@N@std@@@std@@@std@@@std@@YAXPAV?$vector@NV?$allocator@N@std@@@0@QAV10@AAV?$allocator@V?$vector@NV?$allocator@N@std@@@std@@@0@@Z:
	mov	edx, DWORD PTR [esp+8]
	lea	eax, DWORD PTR [edx+12]
	mov	ecx, DWORD PTR [edx-4]
	xor	ecx, eax
	call	@__security_check_cookie@4
	mov	eax, OFFSET __ehfuncinfo$??$_Destroy_range@V?$allocator@V?$vector@NV?$allocator@N@std@@@std@@@std@@@std@@YAXPAV?$vector@NV?$allocator@N@std@@@0@QAV10@AAV?$allocator@V?$vector@NV?$allocator@N@std@@@std@@@0@@Z
	jmp	___CxxFrameHandler3
text$x	ENDS
??$_Destroy_range@V?$allocator@V?$vector@NV?$allocator@N@std@@@std@@@std@@@std@@YAXPAV?$vector@NV?$allocator@N@std@@@0@QAV10@AAV?$allocator@V?$vector@NV?$allocator@N@std@@@std@@@0@@Z ENDP ; std::_Destroy_range<std::allocator<std::vector<double,std::allocator<double> > > >
; Function compile flags: /Odtp /RTCsu
; File C:\Program Files (x86)\Microsoft Visual Studio\2019\Community\VC\Tools\MSVC\14.23.28105\include\xmemory
;	COMDAT ??$_Get_size_of_n@$07@std@@YAII@Z
_TEXT	SEGMENT
__Max_possible$1 = -8					; size = 4
__Overflow_is_possible$ = -1				; size = 1
__Count$ = 8						; size = 4
??$_Get_size_of_n@$07@std@@YAII@Z PROC			; std::_Get_size_of_n<8>, COMDAT

; 24   : _NODISCARD constexpr size_t _Get_size_of_n(const size_t _Count) {

	push	ebp
	mov	ebp, esp
	sub	esp, 8
	mov	DWORD PTR [ebp-8], -858993460		; ccccccccH
	mov	DWORD PTR [ebp-4], -858993460		; ccccccccH

; 25   :     constexpr bool _Overflow_is_possible = _Ty_size > 1;

	mov	BYTE PTR __Overflow_is_possible$[ebp], 1

; 26   : 
; 27   :     if
; 28   :         _CONSTEXPR_IF(_Overflow_is_possible) {
; 29   :             constexpr size_t _Max_possible = static_cast<size_t>(-1) / _Ty_size;

	mov	DWORD PTR __Max_possible$1[ebp], 536870911 ; 1fffffffH

; 30   :             if (_Count > _Max_possible) {

	cmp	DWORD PTR __Count$[ebp], 536870911	; 1fffffffH
	jbe	SHORT $LN2@Get_size_o

; 31   :                 _Throw_bad_array_new_length(); // multiply overflow

	call	?_Throw_bad_array_new_length@std@@YAXXZ	; std::_Throw_bad_array_new_length
$LN2@Get_size_o:

; 32   :             }
; 33   :         }
; 34   : 
; 35   :     return _Count * _Ty_size;

	mov	eax, DWORD PTR __Count$[ebp]
	shl	eax, 3
$LN3@Get_size_o:

; 36   : }

	add	esp, 8
	cmp	ebp, esp
	call	__RTC_CheckEsp
	mov	esp, ebp
	pop	ebp
	ret	0
??$_Get_size_of_n@$07@std@@YAII@Z ENDP			; std::_Get_size_of_n<8>
_TEXT	ENDS
; Function compile flags: /Odtp /RTCsu
; File C:\Program Files (x86)\Microsoft Visual Studio\2019\Community\VC\Tools\MSVC\14.23.28105\include\xmemory
;	COMDAT ??$_Deallocate@$07$0A@@std@@YAXPAXI@Z
_TEXT	SEGMENT
__$EHRec$ = -12						; size = 12
__Ptr$ = 8						; size = 4
__Bytes$ = 12						; size = 4
??$_Deallocate@$07$0A@@std@@YAXPAXI@Z PROC		; std::_Deallocate<8,0>, COMDAT

; 183  : void _Deallocate(void* _Ptr, size_t _Bytes) noexcept {

	push	ebp
	mov	ebp, esp
	push	-1
	push	__ehhandler$??$_Deallocate@$07$0A@@std@@YAXPAXI@Z
	mov	eax, DWORD PTR fs:0
	push	eax
	mov	eax, DWORD PTR ___security_cookie
	xor	eax, ebp
	push	eax
	lea	eax, DWORD PTR __$EHRec$[ebp]
	mov	DWORD PTR fs:0, eax

; 184  :     // deallocate storage allocated by _Allocate when !_HAS_ALIGNED_NEW || _Align <= __STDCPP_DEFAULT_NEW_ALIGNMENT__
; 185  : #if defined(_M_IX86) || defined(_M_X64)
; 186  :     if (_Bytes >= _Big_allocation_threshold) { // boost the alignment of big allocations to help autovectorization

	cmp	DWORD PTR __Bytes$[ebp], 4096		; 00001000H
	jb	SHORT $LN2@Deallocate

; 187  :         _Adjust_manually_vector_aligned(_Ptr, _Bytes);

	lea	eax, DWORD PTR __Bytes$[ebp]
	push	eax
	lea	ecx, DWORD PTR __Ptr$[ebp]
	push	ecx
	call	?_Adjust_manually_vector_aligned@std@@YAXAAPAXAAI@Z ; std::_Adjust_manually_vector_aligned
	add	esp, 8
$LN2@Deallocate:

; 188  :     }
; 189  : #endif // defined(_M_IX86) || defined(_M_X64)
; 190  : 
; 191  :     ::operator delete(_Ptr, _Bytes);

	mov	edx, DWORD PTR __Bytes$[ebp]
	push	edx
	mov	eax, DWORD PTR __Ptr$[ebp]
	push	eax
	call	??3@YAXPAXI@Z				; operator delete
	add	esp, 8

; 192  : }

	mov	ecx, DWORD PTR __$EHRec$[ebp]
	mov	DWORD PTR fs:0, ecx
	pop	ecx
	add	esp, 12					; 0000000cH
	cmp	ebp, esp
	call	__RTC_CheckEsp
	mov	esp, ebp
	pop	ebp
	ret	0
_TEXT	ENDS
;	COMDAT text$x
text$x	SEGMENT
__ehhandler$??$_Deallocate@$07$0A@@std@@YAXPAXI@Z:
	mov	edx, DWORD PTR [esp+8]
	lea	eax, DWORD PTR [edx+12]
	mov	ecx, DWORD PTR [edx-4]
	xor	ecx, eax
	call	@__security_check_cookie@4
	mov	eax, OFFSET __ehfuncinfo$??$_Deallocate@$07$0A@@std@@YAXPAXI@Z
	jmp	___CxxFrameHandler3
text$x	ENDS
??$_Deallocate@$07$0A@@std@@YAXPAXI@Z ENDP		; std::_Deallocate<8,0>
; Function compile flags: /Odtp /RTCsu
; File C:\Program Files (x86)\Microsoft Visual Studio\2019\Community\VC\Tools\MSVC\14.23.28105\include\xmemory
;	COMDAT ??$_Allocate@$07U_Default_allocate_traits@std@@$0A@@std@@YAPAXI@Z
_TEXT	SEGMENT
__Bytes$ = 8						; size = 4
??$_Allocate@$07U_Default_allocate_traits@std@@$0A@@std@@YAPAXI@Z PROC ; std::_Allocate<8,std::_Default_allocate_traits,0>, COMDAT

; 167  : _DECLSPEC_ALLOCATOR void* _Allocate(const size_t _Bytes) {

	push	ebp
	mov	ebp, esp

; 168  :     // allocate _Bytes when !_HAS_ALIGNED_NEW || _Align <= __STDCPP_DEFAULT_NEW_ALIGNMENT__
; 169  : #if defined(_M_IX86) || defined(_M_X64)
; 170  :     if (_Bytes >= _Big_allocation_threshold) { // boost the alignment of big allocations to help autovectorization

	cmp	DWORD PTR __Bytes$[ebp], 4096		; 00001000H
	jb	SHORT $LN2@Allocate

; 171  :         return _Allocate_manually_vector_aligned<_Traits>(_Bytes);

	mov	eax, DWORD PTR __Bytes$[ebp]
	push	eax
	call	??$_Allocate_manually_vector_aligned@U_Default_allocate_traits@std@@@std@@YAPAXI@Z ; std::_Allocate_manually_vector_aligned<std::_Default_allocate_traits>
	add	esp, 4
	jmp	SHORT $LN1@Allocate
$LN2@Allocate:

; 172  :     }
; 173  : #endif // defined(_M_IX86) || defined(_M_X64)
; 174  : 
; 175  :     if (_Bytes != 0) {

	cmp	DWORD PTR __Bytes$[ebp], 0
	je	SHORT $LN3@Allocate

; 176  :         return _Traits::_Allocate(_Bytes);

	mov	ecx, DWORD PTR __Bytes$[ebp]
	push	ecx
	call	?_Allocate@_Default_allocate_traits@std@@SAPAXI@Z ; std::_Default_allocate_traits::_Allocate
	add	esp, 4
	jmp	SHORT $LN1@Allocate
$LN3@Allocate:

; 177  :     }
; 178  : 
; 179  :     return nullptr;

	xor	eax, eax
$LN1@Allocate:

; 180  : }

	cmp	ebp, esp
	call	__RTC_CheckEsp
	pop	ebp
	ret	0
??$_Allocate@$07U_Default_allocate_traits@std@@$0A@@std@@YAPAXI@Z ENDP ; std::_Allocate<8,std::_Default_allocate_traits,0>
_TEXT	ENDS
; Function compile flags: /Odtp /RTCsu
; File C:\Program Files (x86)\Microsoft Visual Studio\2019\Community\VC\Tools\MSVC\14.23.28105\include\xmemory
;	COMDAT ??$_Construct_in_place@U_Container_proxy@std@@PAU_Container_base12@2@@std@@YAXAAU_Container_proxy@0@$$QAPAU_Container_base12@0@@Z
_TEXT	SEGMENT
$T1 = -4						; size = 4
__Obj$ = 8						; size = 4
_<_Args_0>$ = 12					; size = 4
??$_Construct_in_place@U_Container_proxy@std@@PAU_Container_base12@2@@std@@YAXAAU_Container_proxy@0@$$QAPAU_Container_base12@0@@Z PROC ; std::_Construct_in_place<std::_Container_proxy,std::_Container_base12 *>, COMDAT

; 198  : void _Construct_in_place(_Ty& _Obj, _Types&&... _Args) _NOEXCEPT_COND(is_nothrow_constructible_v<_Ty, _Types...>) {

	push	ebp
	mov	ebp, esp
	push	ecx
	mov	DWORD PTR [ebp-4], -858993460		; ccccccccH

; 199  :     ::new (const_cast<void*>(static_cast<const volatile void*>(_STD addressof(_Obj))))

	mov	eax, DWORD PTR __Obj$[ebp]
	push	eax
	call	??$addressof@U_Container_proxy@std@@@std@@YAPAU_Container_proxy@0@AAU10@@Z ; std::addressof<std::_Container_proxy>
	add	esp, 4
	push	eax
	push	8
	call	??2@YAPAXIPAX@Z				; operator new
	add	esp, 8
	mov	DWORD PTR $T1[ebp], eax
	mov	ecx, DWORD PTR _<_Args_0>$[ebp]
	push	ecx
	call	??$forward@PAU_Container_base12@std@@@std@@YA$$QAPAU_Container_base12@0@AAPAU10@@Z ; std::forward<std::_Container_base12 *>
	add	esp, 4
	mov	edx, DWORD PTR [eax]
	push	edx
	mov	ecx, DWORD PTR $T1[ebp]
	call	??0_Container_proxy@std@@QAE@PAU_Container_base12@1@@Z ; std::_Container_proxy::_Container_proxy

; 200  :         _Ty(_STD forward<_Types>(_Args)...);
; 201  : }

	add	esp, 4
	cmp	ebp, esp
	call	__RTC_CheckEsp
	mov	esp, ebp
	pop	ebp
	ret	0
??$_Construct_in_place@U_Container_proxy@std@@PAU_Container_base12@2@@std@@YAXAAU_Container_proxy@0@$$QAPAU_Container_base12@0@@Z ENDP ; std::_Construct_in_place<std::_Container_proxy,std::_Container_base12 *>
_TEXT	ENDS
; Function compile flags: /Odtp /RTCsu
; File C:\Program Files (x86)\Microsoft Visual Studio\2019\Community\VC\Tools\MSVC\14.23.28105\include\xstddef
;	COMDAT ??$addressof@U_Container_base12@std@@@std@@YAPAU_Container_base12@0@AAU10@@Z
_TEXT	SEGMENT
__Val$ = 8						; size = 4
??$addressof@U_Container_base12@std@@@std@@YAPAU_Container_base12@0@AAU10@@Z PROC ; std::addressof<std::_Container_base12>, COMDAT

; 279  : _NODISCARD constexpr _Ty* addressof(_Ty& _Val) noexcept { // return address of _Val

	push	ebp
	mov	ebp, esp

; 280  :     return __builtin_addressof(_Val);

	mov	eax, DWORD PTR __Val$[ebp]

; 281  : }

	pop	ebp
	ret	0
??$addressof@U_Container_base12@std@@@std@@YAPAU_Container_base12@0@AAU10@@Z ENDP ; std::addressof<std::_Container_base12>
_TEXT	ENDS
; Function compile flags: /Odtp /RTCsu
; File C:\Program Files (x86)\Microsoft Visual Studio\2019\Community\VC\Tools\MSVC\14.23.28105\include\xstddef
;	COMDAT ??$_Unfancy@U_Container_proxy@std@@@std@@YAPAU_Container_proxy@0@PAU10@@Z
_TEXT	SEGMENT
__Ptr$ = 8						; size = 4
??$_Unfancy@U_Container_proxy@std@@@std@@YAPAU_Container_proxy@0@PAU10@@Z PROC ; std::_Unfancy<std::_Container_proxy>, COMDAT

; 293  : _Ty* _Unfancy(_Ty* _Ptr) { // do nothing for plain pointers

	push	ebp
	mov	ebp, esp

; 294  :     return _Ptr;

	mov	eax, DWORD PTR __Ptr$[ebp]

; 295  : }

	pop	ebp
	ret	0
??$_Unfancy@U_Container_proxy@std@@@std@@YAPAU_Container_proxy@0@PAU10@@Z ENDP ; std::_Unfancy<std::_Container_proxy>
_TEXT	ENDS
; Function compile flags: /Odtp /RTCsu
; File C:\Program Files (x86)\Microsoft Visual Studio\2019\Community\VC\Tools\MSVC\14.23.28105\include\utility
;	COMDAT ??$_Min_value@I@std@@YAABIABI0@Z
_TEXT	SEGMENT
tv65 = -8						; size = 4
$T1 = -4						; size = 4
__Left$ = 8						; size = 4
__Right$ = 12						; size = 4
??$_Min_value@I@std@@YAABIABI0@Z PROC			; std::_Min_value<unsigned int>, COMDAT

; 25   :     _NOEXCEPT_COND(noexcept(_Right < _Left)) { // return smaller of _Left and _Right

	push	ebp
	mov	ebp, esp
	sub	esp, 8
	mov	DWORD PTR [ebp-8], -858993460		; ccccccccH
	mov	DWORD PTR [ebp-4], -858993460		; ccccccccH

; 26   :     return _Right < _Left ? _Right : _Left;

	mov	eax, DWORD PTR __Right$[ebp]
	mov	ecx, DWORD PTR __Left$[ebp]
	mov	edx, DWORD PTR [eax]
	cmp	edx, DWORD PTR [ecx]
	jae	SHORT $LN3@Min_value
	mov	eax, DWORD PTR __Right$[ebp]
	mov	DWORD PTR tv65[ebp], eax
	jmp	SHORT $LN4@Min_value
$LN3@Min_value:
	mov	ecx, DWORD PTR __Left$[ebp]
	mov	DWORD PTR tv65[ebp], ecx
$LN4@Min_value:
	mov	edx, DWORD PTR tv65[ebp]
	mov	DWORD PTR $T1[ebp], edx
	mov	eax, DWORD PTR $T1[ebp]

; 27   : }

	mov	esp, ebp
	pop	ebp
	ret	0
??$_Min_value@I@std@@YAABIABI0@Z ENDP			; std::_Min_value<unsigned int>
_TEXT	ENDS
; Function compile flags: /Odtp /RTCsu
; File C:\Program Files (x86)\Microsoft Visual Studio\2019\Community\VC\Tools\MSVC\14.23.28105\include\xmemory
;	COMDAT ??$_Alloc_proxy@V?$allocator@U_Container_proxy@std@@@std@@@_Container_base12@std@@QAEX$$QAV?$allocator@U_Container_proxy@std@@@1@@Z
_TEXT	SEGMENT
$T1 = -12						; size = 4
__New_proxy$ = -8					; size = 4
_this$ = -4						; size = 4
__Al$ = 8						; size = 4
??$_Alloc_proxy@V?$allocator@U_Container_proxy@std@@@std@@@_Container_base12@std@@QAEX$$QAV?$allocator@U_Container_proxy@std@@@1@@Z PROC ; std::_Container_base12::_Alloc_proxy<std::allocator<std::_Container_proxy> >, COMDAT
; _this$ = ecx

; 1184 :     void _Alloc_proxy(_Alloc&& _Al) {

	push	ebp
	mov	ebp, esp
	sub	esp, 12					; 0000000cH
	mov	DWORD PTR [ebp-12], -858993460		; ccccccccH
	mov	DWORD PTR [ebp-8], -858993460		; ccccccccH
	mov	DWORD PTR [ebp-4], -858993460		; ccccccccH
	mov	DWORD PTR _this$[ebp], ecx

; 1185 :         _Container_proxy* const _New_proxy = _Unfancy(_Al.allocate(1));

	push	1
	mov	ecx, DWORD PTR __Al$[ebp]
	call	?allocate@?$allocator@U_Container_proxy@std@@@std@@QAEPAU_Container_proxy@2@I@Z ; std::allocator<std::_Container_proxy>::allocate
	push	eax
	call	??$_Unfancy@U_Container_proxy@std@@@std@@YAPAU_Container_proxy@0@PAU10@@Z ; std::_Unfancy<std::_Container_proxy>
	add	esp, 4
	mov	DWORD PTR __New_proxy$[ebp], eax

; 1186 :         _Construct_in_place(*_New_proxy, this);

	mov	eax, DWORD PTR _this$[ebp]
	mov	DWORD PTR $T1[ebp], eax
	lea	ecx, DWORD PTR $T1[ebp]
	push	ecx
	mov	edx, DWORD PTR __New_proxy$[ebp]
	push	edx
	call	??$_Construct_in_place@U_Container_proxy@std@@PAU_Container_base12@2@@std@@YAXAAU_Container_proxy@0@$$QAPAU_Container_base12@0@@Z ; std::_Construct_in_place<std::_Container_proxy,std::_Container_base12 *>
	add	esp, 8

; 1187 :         _Myproxy            = _New_proxy;

	mov	eax, DWORD PTR _this$[ebp]
	mov	ecx, DWORD PTR __New_proxy$[ebp]
	mov	DWORD PTR [eax], ecx

; 1188 :         _New_proxy->_Mycont = this;

	mov	edx, DWORD PTR __New_proxy$[ebp]
	mov	eax, DWORD PTR _this$[ebp]
	mov	DWORD PTR [edx], eax

; 1189 :     }

	add	esp, 12					; 0000000cH
	cmp	ebp, esp
	call	__RTC_CheckEsp
	mov	esp, ebp
	pop	ebp
	ret	4
??$_Alloc_proxy@V?$allocator@U_Container_proxy@std@@@std@@@_Container_base12@std@@QAEX$$QAV?$allocator@U_Container_proxy@std@@@1@@Z ENDP ; std::_Container_base12::_Alloc_proxy<std::allocator<std::_Container_proxy> >
_TEXT	ENDS
; Function compile flags: /Odtp /RTCsu
; File C:\Program Files (x86)\Microsoft Visual Studio\2019\Community\VC\Tools\MSVC\14.23.28105\include\xmemory
;	COMDAT ??1?$_Container_proxy_ptr12@V?$allocator@U_Container_proxy@std@@@std@@@std@@QAE@XZ
_TEXT	SEGMENT
_this$ = -4						; size = 4
??1?$_Container_proxy_ptr12@V?$allocator@U_Container_proxy@std@@@std@@@std@@QAE@XZ PROC ; std::_Container_proxy_ptr12<std::allocator<std::_Container_proxy> >::~_Container_proxy_ptr12<std::allocator<std::_Container_proxy> >, COMDAT
; _this$ = ecx

; 1382 :     ~_Container_proxy_ptr12() {

	push	ebp
	mov	ebp, esp
	push	ecx
	mov	DWORD PTR [ebp-4], -858993460		; ccccccccH
	mov	DWORD PTR _this$[ebp], ecx

; 1383 :         if (_Ptr) {

	mov	eax, DWORD PTR _this$[ebp]
	cmp	DWORD PTR [eax], 0
	je	SHORT $LN3@Container_

; 1384 :             _Delete_plain_internal(_Al, _Ptr);

	mov	ecx, DWORD PTR _this$[ebp]
	mov	edx, DWORD PTR [ecx]
	push	edx
	mov	eax, DWORD PTR _this$[ebp]
	mov	ecx, DWORD PTR [eax+4]
	push	ecx
	call	??$_Delete_plain_internal@V?$allocator@U_Container_proxy@std@@@std@@@std@@YAXAAV?$allocator@U_Container_proxy@std@@@0@QAU_Container_proxy@0@@Z ; std::_Delete_plain_internal<std::allocator<std::_Container_proxy> >
	add	esp, 8
$LN3@Container_:

; 1385 :         }
; 1386 :     }

	add	esp, 4
	cmp	ebp, esp
	call	__RTC_CheckEsp
	mov	esp, ebp
	pop	ebp
	ret	0
??1?$_Container_proxy_ptr12@V?$allocator@U_Container_proxy@std@@@std@@@std@@QAE@XZ ENDP ; std::_Container_proxy_ptr12<std::allocator<std::_Container_proxy> >::~_Container_proxy_ptr12<std::allocator<std::_Container_proxy> >
_TEXT	ENDS
; Function compile flags: /Odtp /RTCsu
; File C:\Program Files (x86)\Microsoft Visual Studio\2019\Community\VC\Tools\MSVC\14.23.28105\include\xmemory
;	COMDAT ??0?$_Container_proxy_ptr12@V?$allocator@U_Container_proxy@std@@@std@@@std@@QAE@AAV?$allocator@U_Container_proxy@std@@@1@AAU_Container_base12@1@@Z
_TEXT	SEGMENT
$T1 = -8						; size = 4
_this$ = -4						; size = 4
__Al_$ = 8						; size = 4
__Mycont$ = 12						; size = 4
??0?$_Container_proxy_ptr12@V?$allocator@U_Container_proxy@std@@@std@@@std@@QAE@AAV?$allocator@U_Container_proxy@std@@@1@AAU_Container_base12@1@@Z PROC ; std::_Container_proxy_ptr12<std::allocator<std::_Container_proxy> >::_Container_proxy_ptr12<std::allocator<std::_Container_proxy> >, COMDAT
; _this$ = ecx

; 1368 :     _Container_proxy_ptr12(_Alloc& _Al_, _Container_base12& _Mycont)

	push	ebp
	mov	ebp, esp
	sub	esp, 8
	mov	DWORD PTR [ebp-8], -858993460		; ccccccccH
	mov	DWORD PTR [ebp-4], -858993460		; ccccccccH
	mov	DWORD PTR _this$[ebp], ecx

; 1369 :         : _Al(_Al_) { // create a new _Container_proxy pointing at _Mycont

	mov	eax, DWORD PTR _this$[ebp]
	mov	ecx, DWORD PTR __Al_$[ebp]
	mov	DWORD PTR [eax+4], ecx

; 1370 :         _Ptr = _Unfancy(_Al_.allocate(1));

	push	1
	mov	ecx, DWORD PTR __Al_$[ebp]
	call	?allocate@?$allocator@U_Container_proxy@std@@@std@@QAEPAU_Container_proxy@2@I@Z ; std::allocator<std::_Container_proxy>::allocate
	push	eax
	call	??$_Unfancy@U_Container_proxy@std@@@std@@YAPAU_Container_proxy@0@PAU10@@Z ; std::_Unfancy<std::_Container_proxy>
	add	esp, 4
	mov	edx, DWORD PTR _this$[ebp]
	mov	DWORD PTR [edx], eax

; 1371 :         _Construct_in_place(*_Ptr, _STD addressof(_Mycont));

	mov	eax, DWORD PTR __Mycont$[ebp]
	push	eax
	call	??$addressof@U_Container_base12@std@@@std@@YAPAU_Container_base12@0@AAU10@@Z ; std::addressof<std::_Container_base12>
	add	esp, 4
	mov	DWORD PTR $T1[ebp], eax
	lea	ecx, DWORD PTR $T1[ebp]
	push	ecx
	mov	edx, DWORD PTR _this$[ebp]
	mov	eax, DWORD PTR [edx]
	push	eax
	call	??$_Construct_in_place@U_Container_proxy@std@@PAU_Container_base12@2@@std@@YAXAAU_Container_proxy@0@$$QAPAU_Container_base12@0@@Z ; std::_Construct_in_place<std::_Container_proxy,std::_Container_base12 *>
	add	esp, 8

; 1372 :         _Mycont._Myproxy = _Ptr;

	mov	ecx, DWORD PTR __Mycont$[ebp]
	mov	edx, DWORD PTR _this$[ebp]
	mov	eax, DWORD PTR [edx]
	mov	DWORD PTR [ecx], eax

; 1373 :     }

	mov	eax, DWORD PTR _this$[ebp]
	add	esp, 8
	cmp	ebp, esp
	call	__RTC_CheckEsp
	mov	esp, ebp
	pop	ebp
	ret	8
??0?$_Container_proxy_ptr12@V?$allocator@U_Container_proxy@std@@@std@@@std@@QAE@AAV?$allocator@U_Container_proxy@std@@@1@AAU_Container_base12@1@@Z ENDP ; std::_Container_proxy_ptr12<std::allocator<std::_Container_proxy> >::_Container_proxy_ptr12<std::allocator<std::_Container_proxy> >
_TEXT	ENDS
; Function compile flags: /Odtp /RTCsu
; File C:\Program Files (x86)\Microsoft Visual Studio\2019\Community\VC\Tools\MSVC\14.23.28105\include\xmemory
;	COMDAT ??$_Delete_plain_internal@V?$allocator@U_Container_proxy@std@@@std@@@std@@YAXAAV?$allocator@U_Container_proxy@std@@@0@QAU_Container_proxy@0@@Z
_TEXT	SEGMENT
__Al$ = 8						; size = 4
__Ptr$ = 12						; size = 4
??$_Delete_plain_internal@V?$allocator@U_Container_proxy@std@@@std@@@std@@YAXAAV?$allocator@U_Container_proxy@std@@@0@QAU_Container_proxy@0@@Z PROC ; std::_Delete_plain_internal<std::allocator<std::_Container_proxy> >, COMDAT

; 1109 : void _Delete_plain_internal(_Alloc& _Al, typename _Alloc::value_type* const _Ptr) noexcept {

	push	ebp
	mov	ebp, esp

; 1110 :     // destroy *_Ptr in place, then deallocate _Ptr using _Al; used for internal container types the user didn't name
; 1111 :     using _Ty = typename _Alloc::value_type;
; 1112 :     _Ptr->~_Ty();
; 1113 :     _Deallocate_plain(_Al, _Ptr);

	mov	eax, DWORD PTR __Ptr$[ebp]
	push	eax
	mov	ecx, DWORD PTR __Al$[ebp]
	push	ecx
	call	??$_Deallocate_plain@V?$allocator@U_Container_proxy@std@@@std@@@std@@YAXAAV?$allocator@U_Container_proxy@std@@@0@QAU_Container_proxy@0@@Z ; std::_Deallocate_plain<std::allocator<std::_Container_proxy> >
	add	esp, 8

; 1114 : }

	cmp	ebp, esp
	call	__RTC_CheckEsp
	pop	ebp
	ret	0
??$_Delete_plain_internal@V?$allocator@U_Container_proxy@std@@@std@@@std@@YAXAAV?$allocator@U_Container_proxy@std@@@0@QAU_Container_proxy@0@@Z ENDP ; std::_Delete_plain_internal<std::allocator<std::_Container_proxy> >
_TEXT	ENDS
; Function compile flags: /Odtp /RTCsu
; File C:\Program Files (x86)\Microsoft Visual Studio\2019\Community\VC\Tools\MSVC\14.23.28105\include\utility
;	COMDAT ??$exchange@PAU_Container_proxy@std@@$$T@std@@YAPAU_Container_proxy@0@AAPAU10@$$QA$$T@Z
_TEXT	SEGMENT
__Old_val$ = -4						; size = 4
__Val$ = 8						; size = 4
__New_val$ = 12						; size = 4
??$exchange@PAU_Container_proxy@std@@$$T@std@@YAPAU_Container_proxy@0@AAPAU10@$$QA$$T@Z PROC ; std::exchange<std::_Container_proxy *,std::nullptr_t>, COMDAT

; 526  : _Ty exchange(_Ty& _Val, _Other&& _New_val) { // assign _New_val to _Val, return previous _Val

	push	ebp
	mov	ebp, esp
	push	ecx
	mov	DWORD PTR [ebp-4], -858993460		; ccccccccH

; 527  :     _Ty _Old_val = static_cast<_Ty&&>(_Val);

	mov	eax, DWORD PTR __Val$[ebp]
	mov	ecx, DWORD PTR [eax]
	mov	DWORD PTR __Old_val$[ebp], ecx

; 528  :     _Val         = static_cast<_Other&&>(_New_val);

	mov	edx, DWORD PTR __Val$[ebp]
	mov	eax, DWORD PTR __New_val$[ebp]
	mov	ecx, DWORD PTR [eax]
	mov	DWORD PTR [edx], ecx

; 529  :     return _Old_val;

	mov	eax, DWORD PTR __Old_val$[ebp]

; 530  : }

	mov	esp, ebp
	pop	ebp
	ret	0
??$exchange@PAU_Container_proxy@std@@$$T@std@@YAPAU_Container_proxy@0@AAPAU10@$$QA$$T@Z ENDP ; std::exchange<std::_Container_proxy *,std::nullptr_t>
_TEXT	ENDS
; Function compile flags: /Odtp /RTCsu
; File C:\Program Files (x86)\Microsoft Visual Studio\2019\Community\VC\Tools\MSVC\14.23.28105\include\xmemory
;	COMDAT ?allocate@?$allocator@U_Container_proxy@std@@@std@@QAEPAU_Container_proxy@2@I@Z
_TEXT	SEGMENT
_this$ = -4						; size = 4
__Count$ = 8						; size = 4
?allocate@?$allocator@U_Container_proxy@std@@@std@@QAEPAU_Container_proxy@2@I@Z PROC ; std::allocator<std::_Container_proxy>::allocate, COMDAT
; _this$ = ecx

; 870  :     _NODISCARD _DECLSPEC_ALLOCATOR _Ty* allocate(_CRT_GUARDOVERFLOW const size_t _Count) {

	push	ebp
	mov	ebp, esp
	push	ecx
	mov	DWORD PTR [ebp-4], -858993460		; ccccccccH
	mov	DWORD PTR _this$[ebp], ecx

; 871  :         return static_cast<_Ty*>(_Allocate<_New_alignof<_Ty>>(_Get_size_of_n<sizeof(_Ty)>(_Count)));

	mov	eax, DWORD PTR __Count$[ebp]
	push	eax
	call	??$_Get_size_of_n@$07@std@@YAII@Z	; std::_Get_size_of_n<8>
	add	esp, 4
	push	eax
	call	??$_Allocate@$07U_Default_allocate_traits@std@@$0A@@std@@YAPAXI@Z ; std::_Allocate<8,std::_Default_allocate_traits,0>
	add	esp, 4

; 872  :     }

	add	esp, 4
	cmp	ebp, esp
	call	__RTC_CheckEsp
	mov	esp, ebp
	pop	ebp
	ret	4
?allocate@?$allocator@U_Container_proxy@std@@@std@@QAEPAU_Container_proxy@2@I@Z ENDP ; std::allocator<std::_Container_proxy>::allocate
_TEXT	ENDS
; Function compile flags: /Odtp /RTCsu
; File C:\Program Files (x86)\Microsoft Visual Studio\2019\Community\VC\Tools\MSVC\14.23.28105\include\vector
;	COMDAT ??$_Emplace_reallocate@ABV?$vector@NV?$allocator@N@std@@@std@@@?$vector@V?$vector@NV?$allocator@N@std@@@std@@V?$allocator@V?$vector@NV?$allocator@N@std@@@std@@@2@@std@@QAEPAV?$vector@NV?$allocator@N@std@@@1@QAV21@ABV21@@Z
_TEXT	SEGMENT
tv164 = -68						; size = 4
__Constructed_first$ = -64				; size = 4
__Constructed_last$ = -60				; size = 4
__Newvec$ = -56						; size = 4
__Newcapacity$ = -52					; size = 4
__Newsize$ = -48					; size = 4
__Oldsize$ = -44					; size = 4
__Whereoff$ = -40					; size = 4
__Mylast$ = -36						; size = 4
__Myfirst$ = -32					; size = 4
__My_data$ = -28					; size = 4
__Al$ = -24						; size = 4
_this$ = -20						; size = 4
__$EHRec$ = -16						; size = 16
__Whereptr$ = 8						; size = 4
_<_Val_0>$ = 12						; size = 4
??$_Emplace_reallocate@ABV?$vector@NV?$allocator@N@std@@@std@@@?$vector@V?$vector@NV?$allocator@N@std@@@std@@V?$allocator@V?$vector@NV?$allocator@N@std@@@std@@@2@@std@@QAEPAV?$vector@NV?$allocator@N@std@@@1@QAV21@ABV21@@Z PROC ; std::vector<std::vector<double,std::allocator<double> >,std::allocator<std::vector<double,std::allocator<double> > > >::_Emplace_reallocate<std::vector<double,std::allocator<double> > const &>, COMDAT
; _this$ = ecx

; 676  :     pointer _Emplace_reallocate(const pointer _Whereptr, _Valty&&... _Val) {

	push	ebp
	mov	ebp, esp
	push	-1
	push	__ehhandler$??$_Emplace_reallocate@ABV?$vector@NV?$allocator@N@std@@@std@@@?$vector@V?$vector@NV?$allocator@N@std@@@std@@V?$allocator@V?$vector@NV?$allocator@N@std@@@std@@@2@@std@@QAEPAV?$vector@NV?$allocator@N@std@@@1@QAV21@ABV21@@Z
	mov	eax, DWORD PTR fs:0
	push	eax
	push	ecx
	sub	esp, 52					; 00000034H
	push	ebx
	push	esi
	push	edi
	push	ecx
	lea	edi, DWORD PTR [ebp-68]
	mov	ecx, 13					; 0000000dH
	mov	eax, -858993460				; ccccccccH
	rep stosd
	pop	ecx
	mov	eax, DWORD PTR ___security_cookie
	xor	eax, ebp
	push	eax
	lea	eax, DWORD PTR __$EHRec$[ebp+4]
	mov	DWORD PTR fs:0, eax
	mov	DWORD PTR __$EHRec$[ebp], esp
	mov	DWORD PTR _this$[ebp], ecx

; 677  :         // reallocate and insert by perfectly forwarding _Val at _Whereptr
; 678  :         _Alty& _Al        = _Getal();

	mov	ecx, DWORD PTR _this$[ebp]
	call	?_Getal@?$vector@V?$vector@NV?$allocator@N@std@@@std@@V?$allocator@V?$vector@NV?$allocator@N@std@@@std@@@2@@std@@AAEAAV?$allocator@V?$vector@NV?$allocator@N@std@@@std@@@2@XZ ; std::vector<std::vector<double,std::allocator<double> >,std::allocator<std::vector<double,std::allocator<double> > > >::_Getal
	mov	DWORD PTR __Al$[ebp], eax

; 679  :         auto& _My_data    = _Mypair._Myval2;

	mov	eax, DWORD PTR _this$[ebp]
	mov	DWORD PTR __My_data$[ebp], eax

; 680  :         pointer& _Myfirst = _My_data._Myfirst;

	mov	ecx, DWORD PTR __My_data$[ebp]
	add	ecx, 4
	mov	DWORD PTR __Myfirst$[ebp], ecx

; 681  :         pointer& _Mylast  = _My_data._Mylast;

	mov	edx, DWORD PTR __My_data$[ebp]
	add	edx, 8
	mov	DWORD PTR __Mylast$[ebp], edx

; 682  : 
; 683  :         _STL_INTERNAL_CHECK(_Mylast == _My_data._Myend); // check that we have no unused capacity
; 684  : 
; 685  :         const auto _Whereoff = static_cast<size_type>(_Whereptr - _Myfirst);

	mov	eax, DWORD PTR __Myfirst$[ebp]
	mov	ecx, DWORD PTR __Whereptr$[ebp]
	sub	ecx, DWORD PTR [eax]
	sar	ecx, 4
	mov	DWORD PTR __Whereoff$[ebp], ecx

; 686  :         const auto _Oldsize  = static_cast<size_type>(_Mylast - _Myfirst);

	mov	edx, DWORD PTR __Mylast$[ebp]
	mov	eax, DWORD PTR __Myfirst$[ebp]
	mov	ecx, DWORD PTR [edx]
	sub	ecx, DWORD PTR [eax]
	sar	ecx, 4
	mov	DWORD PTR __Oldsize$[ebp], ecx

; 687  : 
; 688  :         if (_Oldsize == max_size()) {

	mov	ecx, DWORD PTR _this$[ebp]
	call	?max_size@?$vector@V?$vector@NV?$allocator@N@std@@@std@@V?$allocator@V?$vector@NV?$allocator@N@std@@@std@@@2@@std@@QBEIXZ ; std::vector<std::vector<double,std::allocator<double> >,std::allocator<std::vector<double,std::allocator<double> > > >::max_size
	cmp	DWORD PTR __Oldsize$[ebp], eax
	jne	SHORT $LN2@Emplace_re

; 689  :             _Xlength();

	call	?_Xlength@?$vector@V?$vector@NV?$allocator@N@std@@@std@@V?$allocator@V?$vector@NV?$allocator@N@std@@@std@@@2@@std@@CAXXZ ; std::vector<std::vector<double,std::allocator<double> >,std::allocator<std::vector<double,std::allocator<double> > > >::_Xlength
$LN2@Emplace_re:

; 690  :         }
; 691  : 
; 692  :         const size_type _Newsize     = _Oldsize + 1;

	mov	edx, DWORD PTR __Oldsize$[ebp]
	add	edx, 1
	mov	DWORD PTR __Newsize$[ebp], edx

; 693  :         const size_type _Newcapacity = _Calculate_growth(_Newsize);

	mov	eax, DWORD PTR __Newsize$[ebp]
	push	eax
	mov	ecx, DWORD PTR _this$[ebp]
	call	?_Calculate_growth@?$vector@V?$vector@NV?$allocator@N@std@@@std@@V?$allocator@V?$vector@NV?$allocator@N@std@@@std@@@2@@std@@ABEII@Z ; std::vector<std::vector<double,std::allocator<double> >,std::allocator<std::vector<double,std::allocator<double> > > >::_Calculate_growth
	mov	DWORD PTR __Newcapacity$[ebp], eax

; 694  : 
; 695  :         const pointer _Newvec           = _Al.allocate(_Newcapacity);

	mov	ecx, DWORD PTR __Newcapacity$[ebp]
	push	ecx
	mov	ecx, DWORD PTR __Al$[ebp]
	call	?allocate@?$allocator@V?$vector@NV?$allocator@N@std@@@std@@@std@@QAEPAV?$vector@NV?$allocator@N@std@@@2@I@Z ; std::allocator<std::vector<double,std::allocator<double> > >::allocate
	mov	DWORD PTR __Newvec$[ebp], eax

; 696  :         const pointer _Constructed_last = _Newvec + _Whereoff + 1;

	mov	edx, DWORD PTR __Whereoff$[ebp]
	shl	edx, 4
	mov	eax, DWORD PTR __Newvec$[ebp]
	lea	ecx, DWORD PTR [eax+edx+16]
	mov	DWORD PTR __Constructed_last$[ebp], ecx

; 697  :         pointer _Constructed_first      = _Constructed_last;

	mov	edx, DWORD PTR __Constructed_last$[ebp]
	mov	DWORD PTR __Constructed_first$[ebp], edx

; 698  : 
; 699  :         _TRY_BEGIN

	mov	DWORD PTR __$EHRec$[ebp+12], 0

; 700  :         _Alty_traits::construct(_Al, _Unfancy(_Newvec + _Whereoff), _STD forward<_Valty>(_Val)...);

	mov	eax, DWORD PTR __Whereoff$[ebp]
	shl	eax, 4
	add	eax, DWORD PTR __Newvec$[ebp]
	push	eax
	call	??$_Unfancy@V?$vector@NV?$allocator@N@std@@@std@@@std@@YAPAV?$vector@NV?$allocator@N@std@@@0@PAV10@@Z ; std::_Unfancy<std::vector<double,std::allocator<double> > >
	add	esp, 4
	mov	DWORD PTR tv164[ebp], eax
	mov	ecx, DWORD PTR _<_Val_0>$[ebp]
	push	ecx
	call	??$forward@ABV?$vector@NV?$allocator@N@std@@@std@@@std@@YAABV?$vector@NV?$allocator@N@std@@@0@ABV10@@Z ; std::forward<std::vector<double,std::allocator<double> > const &>
	add	esp, 4
	push	eax
	mov	edx, DWORD PTR tv164[ebp]
	push	edx
	mov	eax, DWORD PTR __Al$[ebp]
	push	eax
	call	??$construct@V?$vector@NV?$allocator@N@std@@@std@@ABV12@@?$_Default_allocator_traits@V?$allocator@V?$vector@NV?$allocator@N@std@@@std@@@std@@@std@@SAXAAV?$allocator@V?$vector@NV?$allocator@N@std@@@std@@@1@QAV?$vector@NV?$allocator@N@std@@@1@ABV31@@Z ; std::_Default_allocator_traits<std::allocator<std::vector<double,std::allocator<double> > > >::construct<std::vector<double,std::allocator<double> >,std::vector<double,std::allocator<double> > const &>
	add	esp, 12					; 0000000cH

; 701  :         _Constructed_first = _Newvec + _Whereoff;

	mov	ecx, DWORD PTR __Whereoff$[ebp]
	shl	ecx, 4
	add	ecx, DWORD PTR __Newvec$[ebp]
	mov	DWORD PTR __Constructed_first$[ebp], ecx

; 702  : 
; 703  :         if (_Whereptr == _Mylast) { // at back, provide strong guarantee

	mov	edx, DWORD PTR __Mylast$[ebp]
	mov	eax, DWORD PTR __Whereptr$[ebp]
	cmp	eax, DWORD PTR [edx]
	jne	SHORT $LN4@Emplace_re

; 704  :             _Umove_if_noexcept(_Myfirst, _Mylast, _Newvec);

	mov	ecx, DWORD PTR __Newvec$[ebp]
	push	ecx
	mov	edx, DWORD PTR __Mylast$[ebp]
	mov	eax, DWORD PTR [edx]
	push	eax
	mov	ecx, DWORD PTR __Myfirst$[ebp]
	mov	edx, DWORD PTR [ecx]
	push	edx
	mov	ecx, DWORD PTR _this$[ebp]
	call	?_Umove_if_noexcept@?$vector@V?$vector@NV?$allocator@N@std@@@std@@V?$allocator@V?$vector@NV?$allocator@N@std@@@std@@@2@@std@@AAEXPAV?$vector@NV?$allocator@N@std@@@2@00@Z ; std::vector<std::vector<double,std::allocator<double> >,std::allocator<std::vector<double,std::allocator<double> > > >::_Umove_if_noexcept

; 705  :         } else { // provide basic guarantee

	jmp	SHORT $LN5@Emplace_re
$LN4@Emplace_re:

; 706  :             _Umove(_Myfirst, _Whereptr, _Newvec);

	mov	eax, DWORD PTR __Newvec$[ebp]
	push	eax
	mov	ecx, DWORD PTR __Whereptr$[ebp]
	push	ecx
	mov	edx, DWORD PTR __Myfirst$[ebp]
	mov	eax, DWORD PTR [edx]
	push	eax
	mov	ecx, DWORD PTR _this$[ebp]
	call	?_Umove@?$vector@V?$vector@NV?$allocator@N@std@@@std@@V?$allocator@V?$vector@NV?$allocator@N@std@@@std@@@2@@std@@AAEPAV?$vector@NV?$allocator@N@std@@@2@PAV32@00@Z ; std::vector<std::vector<double,std::allocator<double> >,std::allocator<std::vector<double,std::allocator<double> > > >::_Umove

; 707  :             _Constructed_first = _Newvec;

	mov	ecx, DWORD PTR __Newvec$[ebp]
	mov	DWORD PTR __Constructed_first$[ebp], ecx

; 708  :             _Umove(_Whereptr, _Mylast, _Newvec + _Whereoff + 1);

	mov	edx, DWORD PTR __Whereoff$[ebp]
	shl	edx, 4
	mov	eax, DWORD PTR __Newvec$[ebp]
	lea	ecx, DWORD PTR [eax+edx+16]
	push	ecx
	mov	edx, DWORD PTR __Mylast$[ebp]
	mov	eax, DWORD PTR [edx]
	push	eax
	mov	ecx, DWORD PTR __Whereptr$[ebp]
	push	ecx
	mov	ecx, DWORD PTR _this$[ebp]
	call	?_Umove@?$vector@V?$vector@NV?$allocator@N@std@@@std@@V?$allocator@V?$vector@NV?$allocator@N@std@@@std@@@2@@std@@AAEPAV?$vector@NV?$allocator@N@std@@@2@PAV32@00@Z ; std::vector<std::vector<double,std::allocator<double> >,std::allocator<std::vector<double,std::allocator<double> > > >::_Umove
$LN5@Emplace_re:
	jmp	SHORT $LN7@Emplace_re
__catch$??$_Emplace_reallocate@ABV?$vector@NV?$allocator@N@std@@@std@@@?$vector@V?$vector@NV?$allocator@N@std@@@std@@V?$allocator@V?$vector@NV?$allocator@N@std@@@std@@@2@@std@@QAEPAV?$vector@NV?$allocator@N@std@@@1@QAV21@ABV21@@Z$0:

; 709  :         }
; 710  :         _CATCH_ALL
; 711  :         _Destroy(_Constructed_first, _Constructed_last);

	mov	edx, DWORD PTR __Constructed_last$[ebp]
	push	edx
	mov	eax, DWORD PTR __Constructed_first$[ebp]
	push	eax
	mov	ecx, DWORD PTR _this$[ebp]
	call	?_Destroy@?$vector@V?$vector@NV?$allocator@N@std@@@std@@V?$allocator@V?$vector@NV?$allocator@N@std@@@std@@@2@@std@@AAEXPAV?$vector@NV?$allocator@N@std@@@2@0@Z ; std::vector<std::vector<double,std::allocator<double> >,std::allocator<std::vector<double,std::allocator<double> > > >::_Destroy

; 712  :         _Al.deallocate(_Newvec, _Newcapacity);

	mov	ecx, DWORD PTR __Newcapacity$[ebp]
	push	ecx
	mov	edx, DWORD PTR __Newvec$[ebp]
	push	edx
	mov	ecx, DWORD PTR __Al$[ebp]
	call	?deallocate@?$allocator@V?$vector@NV?$allocator@N@std@@@std@@@std@@QAEXQAV?$vector@NV?$allocator@N@std@@@2@I@Z ; std::allocator<std::vector<double,std::allocator<double> > >::deallocate

; 713  :         _RERAISE;

	push	0
	push	0
	call	__CxxThrowException@8

; 714  :         _CATCH_END

	mov	eax, $LN10@Emplace_re
	ret	0
$LN7@Emplace_re:
	mov	DWORD PTR __$EHRec$[ebp+12], -1
	jmp	SHORT __tryend$??$_Emplace_reallocate@ABV?$vector@NV?$allocator@N@std@@@std@@@?$vector@V?$vector@NV?$allocator@N@std@@@std@@V?$allocator@V?$vector@NV?$allocator@N@std@@@std@@@2@@std@@QAEPAV?$vector@NV?$allocator@N@std@@@1@QAV21@ABV21@@Z$1
$LN10@Emplace_re:
	mov	DWORD PTR __$EHRec$[ebp+12], -1
__tryend$??$_Emplace_reallocate@ABV?$vector@NV?$allocator@N@std@@@std@@@?$vector@V?$vector@NV?$allocator@N@std@@@std@@V?$allocator@V?$vector@NV?$allocator@N@std@@@std@@@2@@std@@QAEPAV?$vector@NV?$allocator@N@std@@@1@QAV21@ABV21@@Z$1:

; 715  : 
; 716  :         _Change_array(_Newvec, _Newsize, _Newcapacity);

	mov	eax, DWORD PTR __Newcapacity$[ebp]
	push	eax
	mov	ecx, DWORD PTR __Newsize$[ebp]
	push	ecx
	mov	edx, DWORD PTR __Newvec$[ebp]
	push	edx
	mov	ecx, DWORD PTR _this$[ebp]
	call	?_Change_array@?$vector@V?$vector@NV?$allocator@N@std@@@std@@V?$allocator@V?$vector@NV?$allocator@N@std@@@std@@@2@@std@@AAEXQAV?$vector@NV?$allocator@N@std@@@2@II@Z ; std::vector<std::vector<double,std::allocator<double> >,std::allocator<std::vector<double,std::allocator<double> > > >::_Change_array

; 717  :         return _Newvec + _Whereoff;

	mov	eax, DWORD PTR __Whereoff$[ebp]
	shl	eax, 4
	add	eax, DWORD PTR __Newvec$[ebp]
$LN6@Emplace_re:

; 718  :     }

	mov	ecx, DWORD PTR __$EHRec$[ebp+4]
	mov	DWORD PTR fs:0, ecx
	pop	ecx
	pop	edi
	pop	esi
	pop	ebx
	add	esp, 68					; 00000044H
	cmp	ebp, esp
	call	__RTC_CheckEsp
	mov	esp, ebp
	pop	ebp
	ret	8
_TEXT	ENDS
;	COMDAT text$x
text$x	SEGMENT
__ehhandler$??$_Emplace_reallocate@ABV?$vector@NV?$allocator@N@std@@@std@@@?$vector@V?$vector@NV?$allocator@N@std@@@std@@V?$allocator@V?$vector@NV?$allocator@N@std@@@std@@@2@@std@@QAEPAV?$vector@NV?$allocator@N@std@@@1@QAV21@ABV21@@Z:
	mov	edx, DWORD PTR [esp+8]
	lea	eax, DWORD PTR [edx+12]
	mov	ecx, DWORD PTR [edx-72]
	xor	ecx, eax
	call	@__security_check_cookie@4
	mov	eax, OFFSET __ehfuncinfo$??$_Emplace_reallocate@ABV?$vector@NV?$allocator@N@std@@@std@@@?$vector@V?$vector@NV?$allocator@N@std@@@std@@V?$allocator@V?$vector@NV?$allocator@N@std@@@std@@@2@@std@@QAEPAV?$vector@NV?$allocator@N@std@@@1@QAV21@ABV21@@Z
	jmp	___CxxFrameHandler3
text$x	ENDS
??$_Emplace_reallocate@ABV?$vector@NV?$allocator@N@std@@@std@@@?$vector@V?$vector@NV?$allocator@N@std@@@std@@V?$allocator@V?$vector@NV?$allocator@N@std@@@std@@@2@@std@@QAEPAV?$vector@NV?$allocator@N@std@@@1@QAV21@ABV21@@Z ENDP ; std::vector<std::vector<double,std::allocator<double> >,std::allocator<std::vector<double,std::allocator<double> > > >::_Emplace_reallocate<std::vector<double,std::allocator<double> > const &>
; Function compile flags: /Odtp /RTCsu
; File C:\Program Files (x86)\Microsoft Visual Studio\2019\Community\VC\Tools\MSVC\14.23.28105\include\xmemory
;	COMDAT ??$construct@V?$vector@NV?$allocator@N@std@@@std@@ABV12@@?$_Default_allocator_traits@V?$allocator@V?$vector@NV?$allocator@N@std@@@std@@@std@@@std@@SAXAAV?$allocator@V?$vector@NV?$allocator@N@std@@@std@@@1@QAV?$vector@NV?$allocator@N@std@@@1@ABV31@@Z
_TEXT	SEGMENT
$T1 = -4						; size = 4
___formal$ = 8						; size = 4
__Ptr$ = 12						; size = 4
_<_Args_0>$ = 16					; size = 4
??$construct@V?$vector@NV?$allocator@N@std@@@std@@ABV12@@?$_Default_allocator_traits@V?$allocator@V?$vector@NV?$allocator@N@std@@@std@@@std@@@std@@SAXAAV?$allocator@V?$vector@NV?$allocator@N@std@@@std@@@1@QAV?$vector@NV?$allocator@N@std@@@1@ABV31@@Z PROC ; std::_Default_allocator_traits<std::allocator<std::vector<double,std::allocator<double> > > >::construct<std::vector<double,std::allocator<double> >,std::vector<double,std::allocator<double> > const &>, COMDAT

; 757  :     static void construct(_Alloc&, _Objty* const _Ptr, _Types&&... _Args) {

	push	ebp
	mov	ebp, esp
	push	ecx
	mov	DWORD PTR [ebp-4], -858993460		; ccccccccH

; 758  :         ::new (const_cast<void*>(static_cast<const volatile void*>(_Ptr))) _Objty(_STD forward<_Types>(_Args)...);

	mov	eax, DWORD PTR __Ptr$[ebp]
	push	eax
	push	16					; 00000010H
	call	??2@YAPAXIPAX@Z				; operator new
	add	esp, 8
	mov	DWORD PTR $T1[ebp], eax
	mov	ecx, DWORD PTR _<_Args_0>$[ebp]
	push	ecx
	call	??$forward@ABV?$vector@NV?$allocator@N@std@@@std@@@std@@YAABV?$vector@NV?$allocator@N@std@@@0@ABV10@@Z ; std::forward<std::vector<double,std::allocator<double> > const &>
	add	esp, 4
	push	eax
	mov	ecx, DWORD PTR $T1[ebp]
	call	??0?$vector@NV?$allocator@N@std@@@std@@QAE@ABV01@@Z ; std::vector<double,std::allocator<double> >::vector<double,std::allocator<double> >

; 759  :     }

	add	esp, 4
	cmp	ebp, esp
	call	__RTC_CheckEsp
	mov	esp, ebp
	pop	ebp
	ret	0
??$construct@V?$vector@NV?$allocator@N@std@@@std@@ABV12@@?$_Default_allocator_traits@V?$allocator@V?$vector@NV?$allocator@N@std@@@std@@@std@@@std@@SAXAAV?$allocator@V?$vector@NV?$allocator@N@std@@@std@@@1@QAV?$vector@NV?$allocator@N@std@@@1@ABV31@@Z ENDP ; std::_Default_allocator_traits<std::allocator<std::vector<double,std::allocator<double> > > >::construct<std::vector<double,std::allocator<double> >,std::vector<double,std::allocator<double> > const &>
_TEXT	ENDS
; Function compile flags: /Odtp /RTCsu
; File C:\Program Files (x86)\Microsoft Visual Studio\2019\Community\VC\Tools\MSVC\14.23.28105\include\xstddef
;	COMDAT ??$_Unfancy@V?$vector@NV?$allocator@N@std@@@std@@@std@@YAPAV?$vector@NV?$allocator@N@std@@@0@PAV10@@Z
_TEXT	SEGMENT
__Ptr$ = 8						; size = 4
??$_Unfancy@V?$vector@NV?$allocator@N@std@@@std@@@std@@YAPAV?$vector@NV?$allocator@N@std@@@0@PAV10@@Z PROC ; std::_Unfancy<std::vector<double,std::allocator<double> > >, COMDAT

; 293  : _Ty* _Unfancy(_Ty* _Ptr) { // do nothing for plain pointers

	push	ebp
	mov	ebp, esp

; 294  :     return _Ptr;

	mov	eax, DWORD PTR __Ptr$[ebp]

; 295  : }

	pop	ebp
	ret	0
??$_Unfancy@V?$vector@NV?$allocator@N@std@@@std@@@std@@YAPAV?$vector@NV?$allocator@N@std@@@0@PAV10@@Z ENDP ; std::_Unfancy<std::vector<double,std::allocator<double> > >
_TEXT	ENDS
; Function compile flags: /Odtp /RTCsu
; File C:\Program Files (x86)\Microsoft Visual Studio\2019\Community\VC\Tools\MSVC\14.23.28105\include\vector
;	COMDAT ??$_Emplace_back_with_unused_capacity@ABV?$vector@NV?$allocator@N@std@@@std@@@?$vector@V?$vector@NV?$allocator@N@std@@@std@@V?$allocator@V?$vector@NV?$allocator@N@std@@@std@@@2@@std@@AAE@ABV?$vector@NV?$allocator@N@std@@@1@@Z
_TEXT	SEGMENT
__Result$ = -16						; size = 4
__Mylast$ = -12						; size = 4
__My_data$ = -8						; size = 4
_this$ = -4						; size = 4
_<_Val_0>$ = 8						; size = 4
??$_Emplace_back_with_unused_capacity@ABV?$vector@NV?$allocator@N@std@@@std@@@?$vector@V?$vector@NV?$allocator@N@std@@@std@@V?$allocator@V?$vector@NV?$allocator@N@std@@@std@@@2@@std@@AAE@ABV?$vector@NV?$allocator@N@std@@@1@@Z PROC ; std::vector<std::vector<double,std::allocator<double> >,std::allocator<std::vector<double,std::allocator<double> > > >::_Emplace_back_with_unused_capacity<std::vector<double,std::allocator<double> > const &>, COMDAT
; _this$ = ecx

; 633  :     decltype(auto) _Emplace_back_with_unused_capacity(_Valty&&... _Val) {

	push	ebp
	mov	ebp, esp
	sub	esp, 16					; 00000010H
	mov	eax, -858993460				; ccccccccH
	mov	DWORD PTR [ebp-16], eax
	mov	DWORD PTR [ebp-12], eax
	mov	DWORD PTR [ebp-8], eax
	mov	DWORD PTR [ebp-4], eax
	mov	DWORD PTR _this$[ebp], ecx

; 634  :         // insert by perfectly forwarding into element at end, provide strong guarantee
; 635  :         auto& _My_data   = _Mypair._Myval2;

	mov	eax, DWORD PTR _this$[ebp]
	mov	DWORD PTR __My_data$[ebp], eax

; 636  :         pointer& _Mylast = _My_data._Mylast;

	mov	ecx, DWORD PTR __My_data$[ebp]
	add	ecx, 8
	mov	DWORD PTR __Mylast$[ebp], ecx

; 637  :         _STL_INTERNAL_CHECK(_Mylast != _My_data._Myend); // check that we have unused capacity
; 638  :         _Alty_traits::construct(_Getal(), _Unfancy(_Mylast), _STD forward<_Valty>(_Val)...);

	mov	edx, DWORD PTR _<_Val_0>$[ebp]
	push	edx
	call	??$forward@ABV?$vector@NV?$allocator@N@std@@@std@@@std@@YAABV?$vector@NV?$allocator@N@std@@@0@ABV10@@Z ; std::forward<std::vector<double,std::allocator<double> > const &>
	add	esp, 4
	push	eax
	mov	eax, DWORD PTR __Mylast$[ebp]
	mov	ecx, DWORD PTR [eax]
	push	ecx
	call	??$_Unfancy@V?$vector@NV?$allocator@N@std@@@std@@@std@@YAPAV?$vector@NV?$allocator@N@std@@@0@PAV10@@Z ; std::_Unfancy<std::vector<double,std::allocator<double> > >
	add	esp, 4
	push	eax
	mov	ecx, DWORD PTR _this$[ebp]
	call	?_Getal@?$vector@V?$vector@NV?$allocator@N@std@@@std@@V?$allocator@V?$vector@NV?$allocator@N@std@@@std@@@2@@std@@AAEAAV?$allocator@V?$vector@NV?$allocator@N@std@@@std@@@2@XZ ; std::vector<std::vector<double,std::allocator<double> >,std::allocator<std::vector<double,std::allocator<double> > > >::_Getal
	push	eax
	call	??$construct@V?$vector@NV?$allocator@N@std@@@std@@ABV12@@?$_Default_allocator_traits@V?$allocator@V?$vector@NV?$allocator@N@std@@@std@@@std@@@std@@SAXAAV?$allocator@V?$vector@NV?$allocator@N@std@@@std@@@1@QAV?$vector@NV?$allocator@N@std@@@1@ABV31@@Z ; std::_Default_allocator_traits<std::allocator<std::vector<double,std::allocator<double> > > >::construct<std::vector<double,std::allocator<double> >,std::vector<double,std::allocator<double> > const &>
	add	esp, 12					; 0000000cH

; 639  :         _Orphan_range(_Mylast, _Mylast);

	mov	edx, DWORD PTR __Mylast$[ebp]
	mov	eax, DWORD PTR [edx]
	push	eax
	mov	ecx, DWORD PTR __Mylast$[ebp]
	mov	edx, DWORD PTR [ecx]
	push	edx
	mov	ecx, DWORD PTR _this$[ebp]
	call	?_Orphan_range@?$vector@V?$vector@NV?$allocator@N@std@@@std@@V?$allocator@V?$vector@NV?$allocator@N@std@@@std@@@2@@std@@ABEXPAV?$vector@NV?$allocator@N@std@@@2@0@Z ; std::vector<std::vector<double,std::allocator<double> >,std::allocator<std::vector<double,std::allocator<double> > > >::_Orphan_range

; 640  :         _Ty& _Result = *_Mylast;

	mov	eax, DWORD PTR __Mylast$[ebp]
	mov	ecx, DWORD PTR [eax]
	mov	DWORD PTR __Result$[ebp], ecx

; 641  :         ++_Mylast;

	mov	edx, DWORD PTR __Mylast$[ebp]
	mov	eax, DWORD PTR [edx]
	add	eax, 16					; 00000010H
	mov	ecx, DWORD PTR __Mylast$[ebp]
	mov	DWORD PTR [ecx], eax

; 642  : #if _HAS_CXX17
; 643  :         return _Result;
; 644  : #else // ^^^ _HAS_CXX17 ^^^ // vvv !_HAS_CXX17 vvv
; 645  :         (void) _Result;
; 646  : #endif // _HAS_CXX17
; 647  :     }

	add	esp, 16					; 00000010H
	cmp	ebp, esp
	call	__RTC_CheckEsp
	mov	esp, ebp
	pop	ebp
	ret	4
??$_Emplace_back_with_unused_capacity@ABV?$vector@NV?$allocator@N@std@@@std@@@?$vector@V?$vector@NV?$allocator@N@std@@@std@@V?$allocator@V?$vector@NV?$allocator@N@std@@@std@@@2@@std@@AAE@ABV?$vector@NV?$allocator@N@std@@@1@@Z ENDP ; std::vector<std::vector<double,std::allocator<double> >,std::allocator<std::vector<double,std::allocator<double> > > >::_Emplace_back_with_unused_capacity<std::vector<double,std::allocator<double> > const &>
_TEXT	ENDS
; Function compile flags: /Odtp /RTCsu
; File C:\Program Files (x86)\Microsoft Visual Studio\2019\Community\VC\Tools\MSVC\14.23.28105\include\type_traits
;	COMDAT ??$forward@ABV?$vector@NV?$allocator@N@std@@@std@@@std@@YAABV?$vector@NV?$allocator@N@std@@@0@ABV10@@Z
_TEXT	SEGMENT
__Arg$ = 8						; size = 4
??$forward@ABV?$vector@NV?$allocator@N@std@@@std@@@std@@YAABV?$vector@NV?$allocator@N@std@@@0@ABV10@@Z PROC ; std::forward<std::vector<double,std::allocator<double> > const &>, COMDAT

; 1420 :     remove_reference_t<_Ty>& _Arg) noexcept { // forward an lvalue as either an lvalue or an rvalue

	push	ebp
	mov	ebp, esp

; 1421 :     return static_cast<_Ty&&>(_Arg);

	mov	eax, DWORD PTR __Arg$[ebp]

; 1422 : }

	pop	ebp
	ret	0
??$forward@ABV?$vector@NV?$allocator@N@std@@@std@@@std@@YAABV?$vector@NV?$allocator@N@std@@@0@ABV10@@Z ENDP ; std::forward<std::vector<double,std::allocator<double> > const &>
_TEXT	ENDS
; Function compile flags: /Odtp /RTCsu
; File C:\Program Files (x86)\Microsoft Visual Studio\2019\Community\VC\Tools\MSVC\14.23.28105\include\vector
;	COMDAT ??$emplace_back@ABV?$vector@NV?$allocator@N@std@@@std@@@?$vector@V?$vector@NV?$allocator@N@std@@@std@@V?$allocator@V?$vector@NV?$allocator@N@std@@@std@@@2@@std@@QAE@ABV?$vector@NV?$allocator@N@std@@@1@@Z
_TEXT	SEGMENT
__Result$ = -16						; size = 4
__Mylast$ = -12						; size = 4
__My_data$ = -8						; size = 4
_this$ = -4						; size = 4
_<_Val_0>$ = 8						; size = 4
??$emplace_back@ABV?$vector@NV?$allocator@N@std@@@std@@@?$vector@V?$vector@NV?$allocator@N@std@@@std@@V?$allocator@V?$vector@NV?$allocator@N@std@@@std@@@2@@std@@QAE@ABV?$vector@NV?$allocator@N@std@@@1@@Z PROC ; std::vector<std::vector<double,std::allocator<double> >,std::allocator<std::vector<double,std::allocator<double> > > >::emplace_back<std::vector<double,std::allocator<double> > const &>, COMDAT
; _this$ = ecx

; 651  :     decltype(auto) emplace_back(_Valty&&... _Val) {

	push	ebp
	mov	ebp, esp
	sub	esp, 16					; 00000010H
	mov	eax, -858993460				; ccccccccH
	mov	DWORD PTR [ebp-16], eax
	mov	DWORD PTR [ebp-12], eax
	mov	DWORD PTR [ebp-8], eax
	mov	DWORD PTR [ebp-4], eax
	mov	DWORD PTR _this$[ebp], ecx

; 652  :         // insert by perfectly forwarding into element at end, provide strong guarantee
; 653  :         auto& _My_data   = _Mypair._Myval2;

	mov	eax, DWORD PTR _this$[ebp]
	mov	DWORD PTR __My_data$[ebp], eax

; 654  :         pointer& _Mylast = _My_data._Mylast;

	mov	ecx, DWORD PTR __My_data$[ebp]
	add	ecx, 8
	mov	DWORD PTR __Mylast$[ebp], ecx

; 655  :         if (_Mylast != _My_data._Myend) {

	mov	edx, DWORD PTR __Mylast$[ebp]
	mov	eax, DWORD PTR __My_data$[ebp]
	mov	ecx, DWORD PTR [edx]
	cmp	ecx, DWORD PTR [eax+12]
	je	SHORT $LN2@emplace_ba

; 656  :             return _Emplace_back_with_unused_capacity(_STD forward<_Valty>(_Val)...);

	mov	edx, DWORD PTR _<_Val_0>$[ebp]
	push	edx
	call	??$forward@ABV?$vector@NV?$allocator@N@std@@@std@@@std@@YAABV?$vector@NV?$allocator@N@std@@@0@ABV10@@Z ; std::forward<std::vector<double,std::allocator<double> > const &>
	add	esp, 4
	push	eax
	mov	ecx, DWORD PTR _this$[ebp]
	call	??$_Emplace_back_with_unused_capacity@ABV?$vector@NV?$allocator@N@std@@@std@@@?$vector@V?$vector@NV?$allocator@N@std@@@std@@V?$allocator@V?$vector@NV?$allocator@N@std@@@std@@@2@@std@@AAE@ABV?$vector@NV?$allocator@N@std@@@1@@Z ; std::vector<std::vector<double,std::allocator<double> >,std::allocator<std::vector<double,std::allocator<double> > > >::_Emplace_back_with_unused_capacity<std::vector<double,std::allocator<double> > const &>
	jmp	SHORT $LN1@emplace_ba
$LN2@emplace_ba:

; 657  :         }
; 658  : 
; 659  :         _Ty& _Result = *_Emplace_reallocate(_Mylast, _STD forward<_Valty>(_Val)...);

	mov	eax, DWORD PTR _<_Val_0>$[ebp]
	push	eax
	call	??$forward@ABV?$vector@NV?$allocator@N@std@@@std@@@std@@YAABV?$vector@NV?$allocator@N@std@@@0@ABV10@@Z ; std::forward<std::vector<double,std::allocator<double> > const &>
	add	esp, 4
	push	eax
	mov	ecx, DWORD PTR __Mylast$[ebp]
	mov	edx, DWORD PTR [ecx]
	push	edx
	mov	ecx, DWORD PTR _this$[ebp]
	call	??$_Emplace_reallocate@ABV?$vector@NV?$allocator@N@std@@@std@@@?$vector@V?$vector@NV?$allocator@N@std@@@std@@V?$allocator@V?$vector@NV?$allocator@N@std@@@std@@@2@@std@@QAEPAV?$vector@NV?$allocator@N@std@@@1@QAV21@ABV21@@Z ; std::vector<std::vector<double,std::allocator<double> >,std::allocator<std::vector<double,std::allocator<double> > > >::_Emplace_reallocate<std::vector<double,std::allocator<double> > const &>
	mov	DWORD PTR __Result$[ebp], eax
$LN1@emplace_ba:

; 660  : #if _HAS_CXX17
; 661  :         return _Result;
; 662  : #else // ^^^ _HAS_CXX17 ^^^ // vvv !_HAS_CXX17 vvv
; 663  :         (void) _Result;
; 664  : #endif // _HAS_CXX17
; 665  :     }

	add	esp, 16					; 00000010H
	cmp	ebp, esp
	call	__RTC_CheckEsp
	mov	esp, ebp
	pop	ebp
	ret	4
??$emplace_back@ABV?$vector@NV?$allocator@N@std@@@std@@@?$vector@V?$vector@NV?$allocator@N@std@@@std@@V?$allocator@V?$vector@NV?$allocator@N@std@@@std@@@2@@std@@QAE@ABV?$vector@NV?$allocator@N@std@@@1@@Z ENDP ; std::vector<std::vector<double,std::allocator<double> >,std::allocator<std::vector<double,std::allocator<double> > > >::emplace_back<std::vector<double,std::allocator<double> > const &>
_TEXT	ENDS
; Function compile flags: /Odtp /RTCsu
; File D:\Réseau neuronnes - Projet Raven\Réseau\solution_lab_apprentissage_a_partir_bot\solution_lab_apprentissage_a_partir_bot\Buckland_Chapter7 to 10_Raven_apprentissage\CData.cpp
;	COMDAT ?GetNbShooting@CData@@QAENXZ
_TEXT	SEGMENT
tv139 = -28						; size = 8
tv134 = -20						; size = 4
_i$1 = -16						; size = 4
_temp$ = -12						; size = 8
_this$ = -4						; size = 4
?GetNbShooting@CData@@QAENXZ PROC			; CData::GetNbShooting, COMDAT
; _this$ = ecx

; 20   : {

	push	ebp
	mov	ebp, esp
	sub	esp, 28					; 0000001cH
	mov	eax, -858993460				; ccccccccH
	mov	DWORD PTR [ebp-28], eax
	mov	DWORD PTR [ebp-24], eax
	mov	DWORD PTR [ebp-20], eax
	mov	DWORD PTR [ebp-16], eax
	mov	DWORD PTR [ebp-12], eax
	mov	DWORD PTR [ebp-8], eax
	mov	DWORD PTR [ebp-4], eax
	mov	DWORD PTR _this$[ebp], ecx

; 21   : 	
; 22   : 	double temp = 0;

	xorps	xmm0, xmm0
	movsd	QWORD PTR _temp$[ebp], xmm0

; 23   : 
; 24   : 	if (m_vecTargets.size() > 0) {

	mov	ecx, DWORD PTR _this$[ebp]
	add	ecx, 24					; 00000018H
	call	?size@?$vector@V?$vector@NV?$allocator@N@std@@@std@@V?$allocator@V?$vector@NV?$allocator@N@std@@@std@@@2@@std@@QBEIXZ ; std::vector<std::vector<double,std::allocator<double> >,std::allocator<std::vector<double,std::allocator<double> > > >::size
	test	eax, eax
	jbe	$LN5@GetNbShoot

; 25   : 
; 26   : 		for (size_t i = 0; i < nb_target; i++)

	mov	DWORD PTR _i$1[ebp], 0
	jmp	SHORT $LN4@GetNbShoot
$LN2@GetNbShoot:
	mov	eax, DWORD PTR _i$1[ebp]
	add	eax, 1
	mov	DWORD PTR _i$1[ebp], eax
$LN4@GetNbShoot:
	mov	ecx, DWORD PTR _this$[ebp]
	mov	edx, DWORD PTR _i$1[ebp]
	cmp	edx, DWORD PTR [ecx+4]
	jae	SHORT $LN3@GetNbShoot

; 27   : 		{
; 28   : 			if (m_vecTargets[i][0] == 1)

	push	0
	mov	eax, DWORD PTR _i$1[ebp]
	push	eax
	mov	ecx, DWORD PTR _this$[ebp]
	add	ecx, 24					; 00000018H
	call	??A?$vector@V?$vector@NV?$allocator@N@std@@@std@@V?$allocator@V?$vector@NV?$allocator@N@std@@@std@@@2@@std@@QAEAAV?$vector@NV?$allocator@N@std@@@1@I@Z ; std::vector<std::vector<double,std::allocator<double> >,std::allocator<std::vector<double,std::allocator<double> > > >::operator[]
	mov	ecx, eax
	call	??A?$vector@NV?$allocator@N@std@@@std@@QAEAANI@Z ; std::vector<double,std::allocator<double> >::operator[]
	movsd	xmm0, QWORD PTR [eax]
	ucomisd	xmm0, QWORD PTR __real@3ff0000000000000
	lahf
	test	ah, 68					; 00000044H
	jp	SHORT $LN6@GetNbShoot

; 29   : 				temp++;

	movsd	xmm0, QWORD PTR _temp$[ebp]
	addsd	xmm0, QWORD PTR __real@3ff0000000000000
	movsd	QWORD PTR _temp$[ebp], xmm0
$LN6@GetNbShoot:

; 30   : 		}

	jmp	SHORT $LN2@GetNbShoot
$LN3@GetNbShoot:

; 31   : 		return temp / m_vecTargets.size();

	mov	ecx, DWORD PTR _this$[ebp]
	add	ecx, 24					; 00000018H
	call	?size@?$vector@V?$vector@NV?$allocator@N@std@@@std@@V?$allocator@V?$vector@NV?$allocator@N@std@@@std@@@2@@std@@QBEIXZ ; std::vector<std::vector<double,std::allocator<double> >,std::allocator<std::vector<double,std::allocator<double> > > >::size
	mov	DWORD PTR tv134[ebp], eax
	cvtsi2sd xmm0, DWORD PTR tv134[ebp]
	mov	ecx, DWORD PTR tv134[ebp]
	shr	ecx, 31					; 0000001fH
	addsd	xmm0, QWORD PTR __xmm@41f00000000000000000000000000000[ecx*8]
	movsd	xmm1, QWORD PTR _temp$[ebp]
	divsd	xmm1, xmm0
	movsd	QWORD PTR tv139[ebp], xmm1
	fld	QWORD PTR tv139[ebp]
	jmp	SHORT $LN1@GetNbShoot
$LN5@GetNbShoot:

; 32   : 
; 33   : 	}
; 34   : 	
; 35   : 	return temp;

	fld	QWORD PTR _temp$[ebp]
$LN1@GetNbShoot:

; 36   : }

	add	esp, 28					; 0000001cH
	cmp	ebp, esp
	call	__RTC_CheckEsp
	mov	esp, ebp
	pop	ebp
	ret	0
?GetNbShooting@CData@@QAENXZ ENDP			; CData::GetNbShooting
_TEXT	ENDS
; Function compile flags: /Odtp /RTCsu
; File D:\Réseau neuronnes - Projet Raven\Réseau\solution_lab_apprentissage_a_partir_bot\solution_lab_apprentissage_a_partir_bot\Buckland_Chapter7 to 10_Raven_apprentissage\CData.cpp
;	COMDAT ?AddData@CData@@QAEXAAV?$vector@NV?$allocator@N@std@@@std@@0@Z
_TEXT	SEGMENT
$T1 = -16						; size = 12
_this$ = -4						; size = 4
_data$ = 8						; size = 4
_targets$ = 12						; size = 4
?AddData@CData@@QAEXAAV?$vector@NV?$allocator@N@std@@@std@@0@Z PROC ; CData::AddData, COMDAT
; _this$ = ecx

; 8    : {

	push	ebp
	mov	ebp, esp
	sub	esp, 16					; 00000010H
	mov	eax, -858993460				; ccccccccH
	mov	DWORD PTR [ebp-16], eax
	mov	DWORD PTR [ebp-12], eax
	mov	DWORD PTR [ebp-8], eax
	mov	DWORD PTR [ebp-4], eax
	mov	DWORD PTR _this$[ebp], ecx

; 9    : 	if (data.size() == nb_input && targets.size() == nb_target) {

	mov	ecx, DWORD PTR _data$[ebp]
	call	?size@?$vector@NV?$allocator@N@std@@@std@@QBEIXZ ; std::vector<double,std::allocator<double> >::size
	mov	ecx, DWORD PTR _this$[ebp]
	cmp	eax, DWORD PTR [ecx]
	jne	SHORT $LN2@AddData
	mov	ecx, DWORD PTR _targets$[ebp]
	call	?size@?$vector@NV?$allocator@N@std@@@std@@QBEIXZ ; std::vector<double,std::allocator<double> >::size
	mov	edx, DWORD PTR _this$[ebp]
	cmp	eax, DWORD PTR [edx+4]
	jne	SHORT $LN2@AddData

; 10   : 		m_vecInputs.push_back(data);

	mov	eax, DWORD PTR _data$[ebp]
	push	eax
	mov	ecx, DWORD PTR _this$[ebp]
	add	ecx, 8
	call	?push_back@?$vector@V?$vector@NV?$allocator@N@std@@@std@@V?$allocator@V?$vector@NV?$allocator@N@std@@@std@@@2@@std@@QAEXABV?$vector@NV?$allocator@N@std@@@2@@Z ; std::vector<std::vector<double,std::allocator<double> >,std::allocator<std::vector<double,std::allocator<double> > > >::push_back

; 11   : 		m_vecTargets.push_back(targets);

	mov	ecx, DWORD PTR _targets$[ebp]
	push	ecx
	mov	ecx, DWORD PTR _this$[ebp]
	add	ecx, 24					; 00000018H
	call	?push_back@?$vector@V?$vector@NV?$allocator@N@std@@@std@@V?$allocator@V?$vector@NV?$allocator@N@std@@@std@@@2@@std@@QAEXABV?$vector@NV?$allocator@N@std@@@2@@Z ; std::vector<std::vector<double,std::allocator<double> >,std::allocator<std::vector<double,std::allocator<double> > > >::push_back

; 12   : 	}

	jmp	SHORT $LN4@AddData
$LN2@AddData:

; 13   : 	else {
; 14   : 		throw std::exception("Please check Input & Target Data !");

	push	OFFSET $SG152816
	lea	ecx, DWORD PTR $T1[ebp]
	call	??0exception@std@@QAE@QBD@Z		; std::exception::exception
	push	OFFSET __TI1?AVexception@std@@
	lea	edx, DWORD PTR $T1[ebp]
	push	edx
	call	__CxxThrowException@8
$LN4@AddData:

; 15   : 	}
; 16   : 
; 17   : }

	add	esp, 16					; 00000010H
	cmp	ebp, esp
	call	__RTC_CheckEsp
	mov	esp, ebp
	pop	ebp
	ret	8
?AddData@CData@@QAEXAAV?$vector@NV?$allocator@N@std@@@std@@0@Z ENDP ; CData::AddData
_TEXT	ENDS
; Function compile flags: /Odtp /RTCsu
; File C:\Program Files (x86)\Microsoft Visual Studio\2019\Community\VC\Tools\MSVC\14.23.28105\include\xmemory
;	COMDAT ?_Get_first@?$_Compressed_pair@V?$allocator@V?$vector@NV?$allocator@N@std@@@std@@@std@@V?$_Vector_val@U?$_Simple_types@V?$vector@NV?$allocator@N@std@@@std@@@std@@@2@$00@std@@QBEABV?$allocator@V?$vector@NV?$allocator@N@std@@@std@@@2@XZ
_TEXT	SEGMENT
_this$ = -4						; size = 4
?_Get_first@?$_Compressed_pair@V?$allocator@V?$vector@NV?$allocator@N@std@@@std@@@std@@V?$_Vector_val@U?$_Simple_types@V?$vector@NV?$allocator@N@std@@@std@@@std@@@2@$00@std@@QBEABV?$allocator@V?$vector@NV?$allocator@N@std@@@std@@@2@XZ PROC ; std::_Compressed_pair<std::allocator<std::vector<double,std::allocator<double> > >,std::_Vector_val<std::_Simple_types<std::vector<double,std::allocator<double> > > >,1>::_Get_first, COMDAT
; _this$ = ecx

; 1424 :     const _Ty1& _Get_first() const noexcept {

	push	ebp
	mov	ebp, esp
	push	ecx
	mov	DWORD PTR [ebp-4], -858993460		; ccccccccH
	mov	DWORD PTR _this$[ebp], ecx

; 1425 :         return *this;

	mov	eax, DWORD PTR _this$[ebp]

; 1426 :     }

	mov	esp, ebp
	pop	ebp
	ret	0
?_Get_first@?$_Compressed_pair@V?$allocator@V?$vector@NV?$allocator@N@std@@@std@@@std@@V?$_Vector_val@U?$_Simple_types@V?$vector@NV?$allocator@N@std@@@std@@@std@@@2@$00@std@@QBEABV?$allocator@V?$vector@NV?$allocator@N@std@@@std@@@2@XZ ENDP ; std::_Compressed_pair<std::allocator<std::vector<double,std::allocator<double> > >,std::_Vector_val<std::_Simple_types<std::vector<double,std::allocator<double> > > >,1>::_Get_first
_TEXT	ENDS
; Function compile flags: /Odtp /RTCsu
; File C:\Program Files (x86)\Microsoft Visual Studio\2019\Community\VC\Tools\MSVC\14.23.28105\include\xmemory
;	COMDAT ?_Get_first@?$_Compressed_pair@V?$allocator@V?$vector@NV?$allocator@N@std@@@std@@@std@@V?$_Vector_val@U?$_Simple_types@V?$vector@NV?$allocator@N@std@@@std@@@std@@@2@$00@std@@QAEAAV?$allocator@V?$vector@NV?$allocator@N@std@@@std@@@2@XZ
_TEXT	SEGMENT
_this$ = -4						; size = 4
?_Get_first@?$_Compressed_pair@V?$allocator@V?$vector@NV?$allocator@N@std@@@std@@@std@@V?$_Vector_val@U?$_Simple_types@V?$vector@NV?$allocator@N@std@@@std@@@std@@@2@$00@std@@QAEAAV?$allocator@V?$vector@NV?$allocator@N@std@@@std@@@2@XZ PROC ; std::_Compressed_pair<std::allocator<std::vector<double,std::allocator<double> > >,std::_Vector_val<std::_Simple_types<std::vector<double,std::allocator<double> > > >,1>::_Get_first, COMDAT
; _this$ = ecx

; 1420 :     _Ty1& _Get_first() noexcept {

	push	ebp
	mov	ebp, esp
	push	ecx
	mov	DWORD PTR [ebp-4], -858993460		; ccccccccH
	mov	DWORD PTR _this$[ebp], ecx

; 1421 :         return *this;

	mov	eax, DWORD PTR _this$[ebp]

; 1422 :     }

	mov	esp, ebp
	pop	ebp
	ret	0
?_Get_first@?$_Compressed_pair@V?$allocator@V?$vector@NV?$allocator@N@std@@@std@@@std@@V?$_Vector_val@U?$_Simple_types@V?$vector@NV?$allocator@N@std@@@std@@@std@@@2@$00@std@@QAEAAV?$allocator@V?$vector@NV?$allocator@N@std@@@std@@@2@XZ ENDP ; std::_Compressed_pair<std::allocator<std::vector<double,std::allocator<double> > >,std::_Vector_val<std::_Simple_types<std::vector<double,std::allocator<double> > > >,1>::_Get_first
_TEXT	ENDS
; Function compile flags: /Odtp /RTCsu
; File C:\Program Files (x86)\Microsoft Visual Studio\2019\Community\VC\Tools\MSVC\14.23.28105\include\vector
;	COMDAT ?_Getal@?$vector@V?$vector@NV?$allocator@N@std@@@std@@V?$allocator@V?$vector@NV?$allocator@N@std@@@std@@@2@@std@@ABEABV?$allocator@V?$vector@NV?$allocator@N@std@@@std@@@2@XZ
_TEXT	SEGMENT
_this$ = -4						; size = 4
?_Getal@?$vector@V?$vector@NV?$allocator@N@std@@@std@@V?$allocator@V?$vector@NV?$allocator@N@std@@@std@@@2@@std@@ABEABV?$allocator@V?$vector@NV?$allocator@N@std@@@std@@@2@XZ PROC ; std::vector<std::vector<double,std::allocator<double> >,std::allocator<std::vector<double,std::allocator<double> > > >::_Getal, COMDAT
; _this$ = ecx

; 1692 :     const _Alty& _Getal() const noexcept { // return const reference to allocator

	push	ebp
	mov	ebp, esp
	push	ecx
	mov	DWORD PTR [ebp-4], -858993460		; ccccccccH
	mov	DWORD PTR _this$[ebp], ecx

; 1693 :         return _Mypair._Get_first();

	mov	ecx, DWORD PTR _this$[ebp]
	call	?_Get_first@?$_Compressed_pair@V?$allocator@V?$vector@NV?$allocator@N@std@@@std@@@std@@V?$_Vector_val@U?$_Simple_types@V?$vector@NV?$allocator@N@std@@@std@@@std@@@2@$00@std@@QBEABV?$allocator@V?$vector@NV?$allocator@N@std@@@std@@@2@XZ ; std::_Compressed_pair<std::allocator<std::vector<double,std::allocator<double> > >,std::_Vector_val<std::_Simple_types<std::vector<double,std::allocator<double> > > >,1>::_Get_first

; 1694 :     }

	add	esp, 4
	cmp	ebp, esp
	call	__RTC_CheckEsp
	mov	esp, ebp
	pop	ebp
	ret	0
?_Getal@?$vector@V?$vector@NV?$allocator@N@std@@@std@@V?$allocator@V?$vector@NV?$allocator@N@std@@@std@@@2@@std@@ABEABV?$allocator@V?$vector@NV?$allocator@N@std@@@std@@@2@XZ ENDP ; std::vector<std::vector<double,std::allocator<double> >,std::allocator<std::vector<double,std::allocator<double> > > >::_Getal
_TEXT	ENDS
; Function compile flags: /Odtp /RTCsu
; File C:\Program Files (x86)\Microsoft Visual Studio\2019\Community\VC\Tools\MSVC\14.23.28105\include\vector
;	COMDAT ?_Getal@?$vector@V?$vector@NV?$allocator@N@std@@@std@@V?$allocator@V?$vector@NV?$allocator@N@std@@@std@@@2@@std@@AAEAAV?$allocator@V?$vector@NV?$allocator@N@std@@@std@@@2@XZ
_TEXT	SEGMENT
_this$ = -4						; size = 4
?_Getal@?$vector@V?$vector@NV?$allocator@N@std@@@std@@V?$allocator@V?$vector@NV?$allocator@N@std@@@std@@@2@@std@@AAEAAV?$allocator@V?$vector@NV?$allocator@N@std@@@std@@@2@XZ PROC ; std::vector<std::vector<double,std::allocator<double> >,std::allocator<std::vector<double,std::allocator<double> > > >::_Getal, COMDAT
; _this$ = ecx

; 1688 :     _Alty& _Getal() noexcept { // return reference to allocator

	push	ebp
	mov	ebp, esp
	push	ecx
	mov	DWORD PTR [ebp-4], -858993460		; ccccccccH
	mov	DWORD PTR _this$[ebp], ecx

; 1689 :         return _Mypair._Get_first();

	mov	ecx, DWORD PTR _this$[ebp]
	call	?_Get_first@?$_Compressed_pair@V?$allocator@V?$vector@NV?$allocator@N@std@@@std@@@std@@V?$_Vector_val@U?$_Simple_types@V?$vector@NV?$allocator@N@std@@@std@@@std@@@2@$00@std@@QAEAAV?$allocator@V?$vector@NV?$allocator@N@std@@@std@@@2@XZ ; std::_Compressed_pair<std::allocator<std::vector<double,std::allocator<double> > >,std::_Vector_val<std::_Simple_types<std::vector<double,std::allocator<double> > > >,1>::_Get_first

; 1690 :     }

	add	esp, 4
	cmp	ebp, esp
	call	__RTC_CheckEsp
	mov	esp, ebp
	pop	ebp
	ret	0
?_Getal@?$vector@V?$vector@NV?$allocator@N@std@@@std@@V?$allocator@V?$vector@NV?$allocator@N@std@@@std@@@2@@std@@AAEAAV?$allocator@V?$vector@NV?$allocator@N@std@@@std@@@2@XZ ENDP ; std::vector<std::vector<double,std::allocator<double> >,std::allocator<std::vector<double,std::allocator<double> > > >::_Getal
_TEXT	ENDS
; Function compile flags: /Odtp /RTCsu
; File C:\Program Files (x86)\Microsoft Visual Studio\2019\Community\VC\Tools\MSVC\14.23.28105\include\vector
;	COMDAT ?_Orphan_range@?$vector@V?$vector@NV?$allocator@N@std@@@std@@V?$allocator@V?$vector@NV?$allocator@N@std@@@std@@@2@@std@@ABEXPAV?$vector@NV?$allocator@N@std@@@2@0@Z
_TEXT	SEGMENT
__Pnextptr$1 = -24					; size = 4
__Pnext$ = -20						; size = 4
__Lock$ = -12						; size = 4
_this$ = -4						; size = 4
__First$ = 8						; size = 4
__Last$ = 12						; size = 4
?_Orphan_range@?$vector@V?$vector@NV?$allocator@N@std@@@std@@V?$allocator@V?$vector@NV?$allocator@N@std@@@std@@@2@@std@@ABEXPAV?$vector@NV?$allocator@N@std@@@2@0@Z PROC ; std::vector<std::vector<double,std::allocator<double> >,std::allocator<std::vector<double,std::allocator<double> > > >::_Orphan_range, COMDAT
; _this$ = ecx

; 1668 :     void _Orphan_range(pointer _First, pointer _Last) const { // orphan iterators within specified (inclusive) range

	push	ebp
	mov	ebp, esp
	sub	esp, 24					; 00000018H
	mov	eax, -858993460				; ccccccccH
	mov	DWORD PTR [ebp-24], eax
	mov	DWORD PTR [ebp-20], eax
	mov	DWORD PTR [ebp-16], eax
	mov	DWORD PTR [ebp-12], eax
	mov	DWORD PTR [ebp-8], eax
	mov	DWORD PTR [ebp-4], eax
	mov	DWORD PTR _this$[ebp], ecx

; 1669 : #if _ITERATOR_DEBUG_LEVEL == 2
; 1670 :         _Lockit _Lock(_LOCK_DEBUG);

	push	3
	lea	ecx, DWORD PTR __Lock$[ebp]
	call	??0_Lockit@std@@QAE@H@Z			; std::_Lockit::_Lockit

; 1671 : 
; 1672 :         _Iterator_base12** _Pnext = &_Mypair._Myval2._Myproxy->_Myfirstiter;

	mov	eax, DWORD PTR _this$[ebp]
	mov	ecx, DWORD PTR [eax]
	add	ecx, 4
	mov	DWORD PTR __Pnext$[ebp], ecx
$LN2@Orphan_ran:

; 1673 :         while (*_Pnext) {

	mov	edx, DWORD PTR __Pnext$[ebp]
	cmp	DWORD PTR [edx], 0
	je	SHORT $LN3@Orphan_ran

; 1674 :             const auto _Pnextptr = static_cast<const_iterator&>(**_Pnext)._Ptr;

	mov	eax, DWORD PTR __Pnext$[ebp]
	mov	ecx, DWORD PTR [eax]
	mov	edx, DWORD PTR [ecx+8]
	mov	DWORD PTR __Pnextptr$1[ebp], edx

; 1675 :             if (_Pnextptr < _First || _Last < _Pnextptr) { // skip the iterator

	mov	eax, DWORD PTR __Pnextptr$1[ebp]
	cmp	eax, DWORD PTR __First$[ebp]
	jb	SHORT $LN6@Orphan_ran
	mov	ecx, DWORD PTR __Last$[ebp]
	cmp	ecx, DWORD PTR __Pnextptr$1[ebp]
	jae	SHORT $LN4@Orphan_ran
$LN6@Orphan_ran:

; 1676 :                 _Pnext = &(*_Pnext)->_Mynextiter;

	mov	edx, DWORD PTR __Pnext$[ebp]
	mov	eax, DWORD PTR [edx]
	add	eax, 4
	mov	DWORD PTR __Pnext$[ebp], eax

; 1677 :             } else { // orphan the iterator

	jmp	SHORT $LN5@Orphan_ran
$LN4@Orphan_ran:

; 1678 :                 (*_Pnext)->_Myproxy = nullptr;

	mov	ecx, DWORD PTR __Pnext$[ebp]
	mov	edx, DWORD PTR [ecx]
	mov	DWORD PTR [edx], 0

; 1679 :                 *_Pnext             = (*_Pnext)->_Mynextiter;

	mov	eax, DWORD PTR __Pnext$[ebp]
	mov	ecx, DWORD PTR [eax]
	mov	edx, DWORD PTR __Pnext$[ebp]
	mov	eax, DWORD PTR [ecx+4]
	mov	DWORD PTR [edx], eax
$LN5@Orphan_ran:

; 1680 :             }
; 1681 :         }

	jmp	SHORT $LN2@Orphan_ran
$LN3@Orphan_ran:

; 1682 : #else // ^^^ _ITERATOR_DEBUG_LEVEL == 2 ^^^ // vvv _ITERATOR_DEBUG_LEVEL != 2 vvv
; 1683 :         (void) _First;
; 1684 :         (void) _Last;
; 1685 : #endif // _ITERATOR_DEBUG_LEVEL == 2
; 1686 :     }

	lea	ecx, DWORD PTR __Lock$[ebp]
	call	??1_Lockit@std@@QAE@XZ			; std::_Lockit::~_Lockit
	push	edx
	mov	ecx, ebp
	push	eax
	lea	edx, DWORD PTR $LN11@Orphan_ran
	call	@_RTC_CheckStackVars@8
	pop	eax
	pop	edx
	add	esp, 24					; 00000018H
	cmp	ebp, esp
	call	__RTC_CheckEsp
	mov	esp, ebp
	pop	ebp
	ret	8
$LN11@Orphan_ran:
	DD	1
	DD	$LN10@Orphan_ran
$LN10@Orphan_ran:
	DD	-12					; fffffff4H
	DD	4
	DD	$LN9@Orphan_ran
$LN9@Orphan_ran:
	DB	95					; 0000005fH
	DB	76					; 0000004cH
	DB	111					; 0000006fH
	DB	99					; 00000063H
	DB	107					; 0000006bH
	DB	0
?_Orphan_range@?$vector@V?$vector@NV?$allocator@N@std@@@std@@V?$allocator@V?$vector@NV?$allocator@N@std@@@std@@@2@@std@@ABEXPAV?$vector@NV?$allocator@N@std@@@2@0@Z ENDP ; std::vector<std::vector<double,std::allocator<double> >,std::allocator<std::vector<double,std::allocator<double> > > >::_Orphan_range
_TEXT	ENDS
; Function compile flags: /Odtp /RTCsu
; File C:\Program Files (x86)\Microsoft Visual Studio\2019\Community\VC\Tools\MSVC\14.23.28105\include\vector
;	COMDAT ?_Xlength@?$vector@V?$vector@NV?$allocator@N@std@@@std@@V?$allocator@V?$vector@NV?$allocator@N@std@@@std@@@2@@std@@CAXXZ
_TEXT	SEGMENT
?_Xlength@?$vector@V?$vector@NV?$allocator@N@std@@@std@@V?$allocator@V?$vector@NV?$allocator@N@std@@@std@@@2@@std@@CAXXZ PROC ; std::vector<std::vector<double,std::allocator<double> >,std::allocator<std::vector<double,std::allocator<double> > > >::_Xlength, COMDAT

; 1660 :     [[noreturn]] static void _Xlength() { // report a length_error

	push	ebp
	mov	ebp, esp

; 1661 :         _Xlength_error("vector<T> too long");

	push	OFFSET ??_C@_0BD@OLBABOEK@vector?$DMT?$DO?5too?5long@
	call	?_Xlength_error@std@@YAXPBD@Z		; std::_Xlength_error
$LN2@Xlength:

; 1662 :     }

	cmp	ebp, esp
	call	__RTC_CheckEsp
	pop	ebp
	ret	0
?_Xlength@?$vector@V?$vector@NV?$allocator@N@std@@@std@@V?$allocator@V?$vector@NV?$allocator@N@std@@@std@@@2@@std@@CAXXZ ENDP ; std::vector<std::vector<double,std::allocator<double> >,std::allocator<std::vector<double,std::allocator<double> > > >::_Xlength
_TEXT	ENDS
; Function compile flags: /Odtp /RTCsu
; File C:\Program Files (x86)\Microsoft Visual Studio\2019\Community\VC\Tools\MSVC\14.23.28105\include\vector
;	COMDAT ?_Change_array@?$vector@V?$vector@NV?$allocator@N@std@@@std@@V?$allocator@V?$vector@NV?$allocator@N@std@@@std@@@2@@std@@AAEXQAV?$vector@NV?$allocator@N@std@@@2@II@Z
_TEXT	SEGMENT
__Myend$ = -20						; size = 4
__Mylast$ = -16						; size = 4
__Myfirst$ = -12					; size = 4
__My_data$ = -8						; size = 4
_this$ = -4						; size = 4
__Newvec$ = 8						; size = 4
__Newsize$ = 12						; size = 4
__Newcapacity$ = 16					; size = 4
?_Change_array@?$vector@V?$vector@NV?$allocator@N@std@@@std@@V?$allocator@V?$vector@NV?$allocator@N@std@@@std@@@2@@std@@AAEXQAV?$vector@NV?$allocator@N@std@@@2@II@Z PROC ; std::vector<std::vector<double,std::allocator<double> >,std::allocator<std::vector<double,std::allocator<double> > > >::_Change_array, COMDAT
; _this$ = ecx

; 1623 :     void _Change_array(const pointer _Newvec, const size_type _Newsize, const size_type _Newcapacity) {

	push	ebp
	mov	ebp, esp
	sub	esp, 20					; 00000014H
	mov	eax, -858993460				; ccccccccH
	mov	DWORD PTR [ebp-20], eax
	mov	DWORD PTR [ebp-16], eax
	mov	DWORD PTR [ebp-12], eax
	mov	DWORD PTR [ebp-8], eax
	mov	DWORD PTR [ebp-4], eax
	mov	DWORD PTR _this$[ebp], ecx

; 1624 :         // orphan all iterators, discard old array, acquire new array
; 1625 :         auto& _My_data    = _Mypair._Myval2;

	mov	eax, DWORD PTR _this$[ebp]
	mov	DWORD PTR __My_data$[ebp], eax

; 1626 :         pointer& _Myfirst = _My_data._Myfirst;

	mov	ecx, DWORD PTR __My_data$[ebp]
	add	ecx, 4
	mov	DWORD PTR __Myfirst$[ebp], ecx

; 1627 :         pointer& _Mylast  = _My_data._Mylast;

	mov	edx, DWORD PTR __My_data$[ebp]
	add	edx, 8
	mov	DWORD PTR __Mylast$[ebp], edx

; 1628 :         pointer& _Myend   = _My_data._Myend;

	mov	eax, DWORD PTR __My_data$[ebp]
	add	eax, 12					; 0000000cH
	mov	DWORD PTR __Myend$[ebp], eax

; 1629 : 
; 1630 :         _My_data._Orphan_all();

	mov	ecx, DWORD PTR __My_data$[ebp]
	call	?_Orphan_all@_Container_base12@std@@QAEXXZ ; std::_Container_base12::_Orphan_all

; 1631 : 
; 1632 :         if (_Myfirst) { // destroy and deallocate old array

	mov	ecx, DWORD PTR __Myfirst$[ebp]
	cmp	DWORD PTR [ecx], 0
	je	SHORT $LN2@Change_arr

; 1633 :             _Destroy(_Myfirst, _Mylast);

	mov	edx, DWORD PTR __Mylast$[ebp]
	mov	eax, DWORD PTR [edx]
	push	eax
	mov	ecx, DWORD PTR __Myfirst$[ebp]
	mov	edx, DWORD PTR [ecx]
	push	edx
	mov	ecx, DWORD PTR _this$[ebp]
	call	?_Destroy@?$vector@V?$vector@NV?$allocator@N@std@@@std@@V?$allocator@V?$vector@NV?$allocator@N@std@@@std@@@2@@std@@AAEXPAV?$vector@NV?$allocator@N@std@@@2@0@Z ; std::vector<std::vector<double,std::allocator<double> >,std::allocator<std::vector<double,std::allocator<double> > > >::_Destroy

; 1634 :             _Getal().deallocate(_Myfirst, static_cast<size_type>(_Myend - _Myfirst));

	mov	eax, DWORD PTR __Myend$[ebp]
	mov	ecx, DWORD PTR __Myfirst$[ebp]
	mov	edx, DWORD PTR [eax]
	sub	edx, DWORD PTR [ecx]
	sar	edx, 4
	push	edx
	mov	eax, DWORD PTR __Myfirst$[ebp]
	mov	ecx, DWORD PTR [eax]
	push	ecx
	mov	ecx, DWORD PTR _this$[ebp]
	call	?_Getal@?$vector@V?$vector@NV?$allocator@N@std@@@std@@V?$allocator@V?$vector@NV?$allocator@N@std@@@std@@@2@@std@@AAEAAV?$allocator@V?$vector@NV?$allocator@N@std@@@std@@@2@XZ ; std::vector<std::vector<double,std::allocator<double> >,std::allocator<std::vector<double,std::allocator<double> > > >::_Getal
	mov	ecx, eax
	call	?deallocate@?$allocator@V?$vector@NV?$allocator@N@std@@@std@@@std@@QAEXQAV?$vector@NV?$allocator@N@std@@@2@I@Z ; std::allocator<std::vector<double,std::allocator<double> > >::deallocate
$LN2@Change_arr:

; 1635 :         }
; 1636 : 
; 1637 :         _Myfirst = _Newvec;

	mov	edx, DWORD PTR __Myfirst$[ebp]
	mov	eax, DWORD PTR __Newvec$[ebp]
	mov	DWORD PTR [edx], eax

; 1638 :         _Mylast  = _Newvec + _Newsize;

	mov	ecx, DWORD PTR __Newsize$[ebp]
	shl	ecx, 4
	add	ecx, DWORD PTR __Newvec$[ebp]
	mov	edx, DWORD PTR __Mylast$[ebp]
	mov	DWORD PTR [edx], ecx

; 1639 :         _Myend   = _Newvec + _Newcapacity;

	mov	eax, DWORD PTR __Newcapacity$[ebp]
	shl	eax, 4
	add	eax, DWORD PTR __Newvec$[ebp]
	mov	ecx, DWORD PTR __Myend$[ebp]
	mov	DWORD PTR [ecx], eax

; 1640 :     }

	add	esp, 20					; 00000014H
	cmp	ebp, esp
	call	__RTC_CheckEsp
	mov	esp, ebp
	pop	ebp
	ret	12					; 0000000cH
?_Change_array@?$vector@V?$vector@NV?$allocator@N@std@@@std@@V?$allocator@V?$vector@NV?$allocator@N@std@@@std@@@2@@std@@AAEXQAV?$vector@NV?$allocator@N@std@@@2@II@Z ENDP ; std::vector<std::vector<double,std::allocator<double> >,std::allocator<std::vector<double,std::allocator<double> > > >::_Change_array
_TEXT	ENDS
; Function compile flags: /Odtp /RTCsu
; File C:\Program Files (x86)\Microsoft Visual Studio\2019\Community\VC\Tools\MSVC\14.23.28105\include\vector
;	COMDAT ?_Calculate_growth@?$vector@V?$vector@NV?$allocator@N@std@@@std@@V?$allocator@V?$vector@NV?$allocator@N@std@@@std@@@2@@std@@ABEII@Z
_TEXT	SEGMENT
__Geometric$ = -12					; size = 4
__Oldcapacity$ = -8					; size = 4
_this$ = -4						; size = 4
__Newsize$ = 8						; size = 4
?_Calculate_growth@?$vector@V?$vector@NV?$allocator@N@std@@@std@@V?$allocator@V?$vector@NV?$allocator@N@std@@@std@@@2@@std@@ABEII@Z PROC ; std::vector<std::vector<double,std::allocator<double> >,std::allocator<std::vector<double,std::allocator<double> > > >::_Calculate_growth, COMDAT
; _this$ = ecx

; 1571 :     size_type _Calculate_growth(const size_type _Newsize) const {

	push	ebp
	mov	ebp, esp
	sub	esp, 12					; 0000000cH
	mov	DWORD PTR [ebp-12], -858993460		; ccccccccH
	mov	DWORD PTR [ebp-8], -858993460		; ccccccccH
	mov	DWORD PTR [ebp-4], -858993460		; ccccccccH
	mov	DWORD PTR _this$[ebp], ecx

; 1572 :         // given _Oldcapacity and _Newsize, calculate geometric growth
; 1573 :         const size_type _Oldcapacity = capacity();

	mov	ecx, DWORD PTR _this$[ebp]
	call	?capacity@?$vector@V?$vector@NV?$allocator@N@std@@@std@@V?$allocator@V?$vector@NV?$allocator@N@std@@@std@@@2@@std@@QBEIXZ ; std::vector<std::vector<double,std::allocator<double> >,std::allocator<std::vector<double,std::allocator<double> > > >::capacity
	mov	DWORD PTR __Oldcapacity$[ebp], eax

; 1574 : 
; 1575 :         if (_Oldcapacity > max_size() - _Oldcapacity / 2) {

	mov	ecx, DWORD PTR _this$[ebp]
	call	?max_size@?$vector@V?$vector@NV?$allocator@N@std@@@std@@V?$allocator@V?$vector@NV?$allocator@N@std@@@std@@@2@@std@@QBEIXZ ; std::vector<std::vector<double,std::allocator<double> >,std::allocator<std::vector<double,std::allocator<double> > > >::max_size
	mov	ecx, DWORD PTR __Oldcapacity$[ebp]
	shr	ecx, 1
	sub	eax, ecx
	cmp	DWORD PTR __Oldcapacity$[ebp], eax
	jbe	SHORT $LN2@Calculate_

; 1576 :             return _Newsize; // geometric growth would overflow

	mov	eax, DWORD PTR __Newsize$[ebp]
	jmp	SHORT $LN1@Calculate_
$LN2@Calculate_:

; 1577 :         }
; 1578 : 
; 1579 :         const size_type _Geometric = _Oldcapacity + _Oldcapacity / 2;

	mov	edx, DWORD PTR __Oldcapacity$[ebp]
	shr	edx, 1
	add	edx, DWORD PTR __Oldcapacity$[ebp]
	mov	DWORD PTR __Geometric$[ebp], edx

; 1580 : 
; 1581 :         if (_Geometric < _Newsize) {

	mov	eax, DWORD PTR __Geometric$[ebp]
	cmp	eax, DWORD PTR __Newsize$[ebp]
	jae	SHORT $LN3@Calculate_

; 1582 :             return _Newsize; // geometric growth would be insufficient

	mov	eax, DWORD PTR __Newsize$[ebp]
	jmp	SHORT $LN1@Calculate_
$LN3@Calculate_:

; 1583 :         }
; 1584 : 
; 1585 :         return _Geometric; // geometric growth is sufficient

	mov	eax, DWORD PTR __Geometric$[ebp]
$LN1@Calculate_:

; 1586 :     }

	add	esp, 12					; 0000000cH
	cmp	ebp, esp
	call	__RTC_CheckEsp
	mov	esp, ebp
	pop	ebp
	ret	4
?_Calculate_growth@?$vector@V?$vector@NV?$allocator@N@std@@@std@@V?$allocator@V?$vector@NV?$allocator@N@std@@@std@@@2@@std@@ABEII@Z ENDP ; std::vector<std::vector<double,std::allocator<double> >,std::allocator<std::vector<double,std::allocator<double> > > >::_Calculate_growth
_TEXT	ENDS
; Function compile flags: /Odtp /RTCsu
; File C:\Program Files (x86)\Microsoft Visual Studio\2019\Community\VC\Tools\MSVC\14.23.28105\include\vector
;	COMDAT ?_Destroy@?$vector@V?$vector@NV?$allocator@N@std@@@std@@V?$allocator@V?$vector@NV?$allocator@N@std@@@std@@@2@@std@@AAEXPAV?$vector@NV?$allocator@N@std@@@2@0@Z
_TEXT	SEGMENT
_this$ = -4						; size = 4
__First$ = 8						; size = 4
__Last$ = 12						; size = 4
?_Destroy@?$vector@V?$vector@NV?$allocator@N@std@@@std@@V?$allocator@V?$vector@NV?$allocator@N@std@@@std@@@2@@std@@AAEXPAV?$vector@NV?$allocator@N@std@@@2@0@Z PROC ; std::vector<std::vector<double,std::allocator<double> >,std::allocator<std::vector<double,std::allocator<double> > > >::_Destroy, COMDAT
; _this$ = ecx

; 1567 :     void _Destroy(pointer _First, pointer _Last) { // destroy [_First, _Last) using allocator

	push	ebp
	mov	ebp, esp
	push	ecx
	mov	DWORD PTR [ebp-4], -858993460		; ccccccccH
	mov	DWORD PTR _this$[ebp], ecx

; 1568 :         _Destroy_range(_First, _Last, _Getal());

	mov	ecx, DWORD PTR _this$[ebp]
	call	?_Getal@?$vector@V?$vector@NV?$allocator@N@std@@@std@@V?$allocator@V?$vector@NV?$allocator@N@std@@@std@@@2@@std@@AAEAAV?$allocator@V?$vector@NV?$allocator@N@std@@@std@@@2@XZ ; std::vector<std::vector<double,std::allocator<double> >,std::allocator<std::vector<double,std::allocator<double> > > >::_Getal
	push	eax
	mov	eax, DWORD PTR __Last$[ebp]
	push	eax
	mov	ecx, DWORD PTR __First$[ebp]
	push	ecx
	call	??$_Destroy_range@V?$allocator@V?$vector@NV?$allocator@N@std@@@std@@@std@@@std@@YAXPAV?$vector@NV?$allocator@N@std@@@0@QAV10@AAV?$allocator@V?$vector@NV?$allocator@N@std@@@std@@@0@@Z ; std::_Destroy_range<std::allocator<std::vector<double,std::allocator<double> > > >
	add	esp, 12					; 0000000cH

; 1569 :     }

	add	esp, 4
	cmp	ebp, esp
	call	__RTC_CheckEsp
	mov	esp, ebp
	pop	ebp
	ret	8
?_Destroy@?$vector@V?$vector@NV?$allocator@N@std@@@std@@V?$allocator@V?$vector@NV?$allocator@N@std@@@std@@@2@@std@@AAEXPAV?$vector@NV?$allocator@N@std@@@2@0@Z ENDP ; std::vector<std::vector<double,std::allocator<double> >,std::allocator<std::vector<double,std::allocator<double> > > >::_Destroy
_TEXT	ENDS
; Function compile flags: /Odtp /RTCsu
; File C:\Program Files (x86)\Microsoft Visual Studio\2019\Community\VC\Tools\MSVC\14.23.28105\include\vector
;	COMDAT ?_Umove_if_noexcept@?$vector@V?$vector@NV?$allocator@N@std@@@std@@V?$allocator@V?$vector@NV?$allocator@N@std@@@std@@@2@@std@@AAEXPAV?$vector@NV?$allocator@N@std@@@2@00@Z
_TEXT	SEGMENT
$T1 = -5						; size = 1
_this$ = -4						; size = 4
__First$ = 8						; size = 4
__Last$ = 12						; size = 4
__Dest$ = 16						; size = 4
?_Umove_if_noexcept@?$vector@V?$vector@NV?$allocator@N@std@@@std@@V?$allocator@V?$vector@NV?$allocator@N@std@@@std@@@2@@std@@AAEXPAV?$vector@NV?$allocator@N@std@@@2@00@Z PROC ; std::vector<std::vector<double,std::allocator<double> >,std::allocator<std::vector<double,std::allocator<double> > > >::_Umove_if_noexcept, COMDAT
; _this$ = ecx

; 1561 :     void _Umove_if_noexcept(pointer _First, pointer _Last, pointer _Dest) {

	push	ebp
	mov	ebp, esp
	sub	esp, 8
	mov	DWORD PTR [ebp-8], -858993460		; ccccccccH
	mov	DWORD PTR [ebp-4], -858993460		; ccccccccH
	mov	DWORD PTR _this$[ebp], ecx

; 1562 :         // move_if_noexcept [_First, _Last) to raw _Dest, using allocator
; 1563 :         _Umove_if_noexcept1(_First, _Last, _Dest,

	xor	eax, eax
	mov	BYTE PTR $T1[ebp], al
	movzx	ecx, BYTE PTR $T1[ebp]
	push	ecx
	mov	edx, DWORD PTR __Dest$[ebp]
	push	edx
	mov	eax, DWORD PTR __Last$[ebp]
	push	eax
	mov	ecx, DWORD PTR __First$[ebp]
	push	ecx
	mov	ecx, DWORD PTR _this$[ebp]
	call	?_Umove_if_noexcept1@?$vector@V?$vector@NV?$allocator@N@std@@@std@@V?$allocator@V?$vector@NV?$allocator@N@std@@@std@@@2@@std@@AAEXPAV?$vector@NV?$allocator@N@std@@@2@00U?$integral_constant@_N$00@2@@Z ; std::vector<std::vector<double,std::allocator<double> >,std::allocator<std::vector<double,std::allocator<double> > > >::_Umove_if_noexcept1

; 1564 :             bool_constant<disjunction_v<is_nothrow_move_constructible<_Ty>, negation<is_copy_constructible<_Ty>>>>{});
; 1565 :     }

	add	esp, 8
	cmp	ebp, esp
	call	__RTC_CheckEsp
	mov	esp, ebp
	pop	ebp
	ret	12					; 0000000cH
?_Umove_if_noexcept@?$vector@V?$vector@NV?$allocator@N@std@@@std@@V?$allocator@V?$vector@NV?$allocator@N@std@@@std@@@2@@std@@AAEXPAV?$vector@NV?$allocator@N@std@@@2@00@Z ENDP ; std::vector<std::vector<double,std::allocator<double> >,std::allocator<std::vector<double,std::allocator<double> > > >::_Umove_if_noexcept
_TEXT	ENDS
; Function compile flags: /Odtp /RTCsu
; File C:\Program Files (x86)\Microsoft Visual Studio\2019\Community\VC\Tools\MSVC\14.23.28105\include\vector
;	COMDAT ?_Umove_if_noexcept1@?$vector@V?$vector@NV?$allocator@N@std@@@std@@V?$allocator@V?$vector@NV?$allocator@N@std@@@std@@@2@@std@@AAEXPAV?$vector@NV?$allocator@N@std@@@2@00U?$integral_constant@_N$00@2@@Z
_TEXT	SEGMENT
_this$ = -4						; size = 4
__First$ = 8						; size = 4
__Last$ = 12						; size = 4
__Dest$ = 16						; size = 4
___formal$ = 20						; size = 1
?_Umove_if_noexcept1@?$vector@V?$vector@NV?$allocator@N@std@@@std@@V?$allocator@V?$vector@NV?$allocator@N@std@@@std@@@2@@std@@AAEXPAV?$vector@NV?$allocator@N@std@@@2@00U?$integral_constant@_N$00@2@@Z PROC ; std::vector<std::vector<double,std::allocator<double> >,std::allocator<std::vector<double,std::allocator<double> > > >::_Umove_if_noexcept1, COMDAT
; _this$ = ecx

; 1551 :     void _Umove_if_noexcept1(pointer _First, pointer _Last, pointer _Dest, true_type) {

	push	ebp
	mov	ebp, esp
	push	ecx
	mov	DWORD PTR [ebp-4], -858993460		; ccccccccH
	mov	DWORD PTR _this$[ebp], ecx

; 1552 :         // move [_First, _Last) to raw _Dest, using allocator
; 1553 :         _Uninitialized_move(_First, _Last, _Dest, _Getal());

	mov	ecx, DWORD PTR _this$[ebp]
	call	?_Getal@?$vector@V?$vector@NV?$allocator@N@std@@@std@@V?$allocator@V?$vector@NV?$allocator@N@std@@@std@@@2@@std@@AAEAAV?$allocator@V?$vector@NV?$allocator@N@std@@@std@@@2@XZ ; std::vector<std::vector<double,std::allocator<double> >,std::allocator<std::vector<double,std::allocator<double> > > >::_Getal
	push	eax
	mov	eax, DWORD PTR __Dest$[ebp]
	push	eax
	mov	ecx, DWORD PTR __Last$[ebp]
	push	ecx
	mov	edx, DWORD PTR __First$[ebp]
	push	edx
	call	??$_Uninitialized_move@PAV?$vector@NV?$allocator@N@std@@@std@@V?$allocator@V?$vector@NV?$allocator@N@std@@@std@@@2@@std@@YAPAV?$vector@NV?$allocator@N@std@@@0@QAV10@0PAV10@AAV?$allocator@V?$vector@NV?$allocator@N@std@@@std@@@0@@Z ; std::_Uninitialized_move<std::vector<double,std::allocator<double> > *,std::allocator<std::vector<double,std::allocator<double> > > >
	add	esp, 16					; 00000010H

; 1554 :     }

	add	esp, 4
	cmp	ebp, esp
	call	__RTC_CheckEsp
	mov	esp, ebp
	pop	ebp
	ret	16					; 00000010H
?_Umove_if_noexcept1@?$vector@V?$vector@NV?$allocator@N@std@@@std@@V?$allocator@V?$vector@NV?$allocator@N@std@@@std@@@2@@std@@AAEXPAV?$vector@NV?$allocator@N@std@@@2@00U?$integral_constant@_N$00@2@@Z ENDP ; std::vector<std::vector<double,std::allocator<double> >,std::allocator<std::vector<double,std::allocator<double> > > >::_Umove_if_noexcept1
_TEXT	ENDS
; Function compile flags: /Odtp /RTCsu
; File C:\Program Files (x86)\Microsoft Visual Studio\2019\Community\VC\Tools\MSVC\14.23.28105\include\vector
;	COMDAT ?_Umove@?$vector@V?$vector@NV?$allocator@N@std@@@std@@V?$allocator@V?$vector@NV?$allocator@N@std@@@std@@@2@@std@@AAEPAV?$vector@NV?$allocator@N@std@@@2@PAV32@00@Z
_TEXT	SEGMENT
_this$ = -4						; size = 4
__First$ = 8						; size = 4
__Last$ = 12						; size = 4
__Dest$ = 16						; size = 4
?_Umove@?$vector@V?$vector@NV?$allocator@N@std@@@std@@V?$allocator@V?$vector@NV?$allocator@N@std@@@std@@@2@@std@@AAEPAV?$vector@NV?$allocator@N@std@@@2@PAV32@00@Z PROC ; std::vector<std::vector<double,std::allocator<double> >,std::allocator<std::vector<double,std::allocator<double> > > >::_Umove, COMDAT
; _this$ = ecx

; 1547 :     pointer _Umove(pointer _First, pointer _Last, pointer _Dest) { // move [_First, _Last) to raw _Dest, using allocator

	push	ebp
	mov	ebp, esp
	push	ecx
	mov	DWORD PTR [ebp-4], -858993460		; ccccccccH
	mov	DWORD PTR _this$[ebp], ecx

; 1548 :         return _Uninitialized_move(_First, _Last, _Dest, _Getal());

	mov	ecx, DWORD PTR _this$[ebp]
	call	?_Getal@?$vector@V?$vector@NV?$allocator@N@std@@@std@@V?$allocator@V?$vector@NV?$allocator@N@std@@@std@@@2@@std@@AAEAAV?$allocator@V?$vector@NV?$allocator@N@std@@@std@@@2@XZ ; std::vector<std::vector<double,std::allocator<double> >,std::allocator<std::vector<double,std::allocator<double> > > >::_Getal
	push	eax
	mov	eax, DWORD PTR __Dest$[ebp]
	push	eax
	mov	ecx, DWORD PTR __Last$[ebp]
	push	ecx
	mov	edx, DWORD PTR __First$[ebp]
	push	edx
	call	??$_Uninitialized_move@PAV?$vector@NV?$allocator@N@std@@@std@@V?$allocator@V?$vector@NV?$allocator@N@std@@@std@@@2@@std@@YAPAV?$vector@NV?$allocator@N@std@@@0@QAV10@0PAV10@AAV?$allocator@V?$vector@NV?$allocator@N@std@@@std@@@0@@Z ; std::_Uninitialized_move<std::vector<double,std::allocator<double> > *,std::allocator<std::vector<double,std::allocator<double> > > >
	add	esp, 16					; 00000010H

; 1549 :     }

	add	esp, 4
	cmp	ebp, esp
	call	__RTC_CheckEsp
	mov	esp, ebp
	pop	ebp
	ret	12					; 0000000cH
?_Umove@?$vector@V?$vector@NV?$allocator@N@std@@@std@@V?$allocator@V?$vector@NV?$allocator@N@std@@@std@@@2@@std@@AAEPAV?$vector@NV?$allocator@N@std@@@2@PAV32@00@Z ENDP ; std::vector<std::vector<double,std::allocator<double> >,std::allocator<std::vector<double,std::allocator<double> > > >::_Umove
_TEXT	ENDS
; Function compile flags: /Odtp /RTCsu
; File C:\Program Files (x86)\Microsoft Visual Studio\2019\Community\VC\Tools\MSVC\14.23.28105\include\vector
;	COMDAT ??A?$vector@V?$vector@NV?$allocator@N@std@@@std@@V?$allocator@V?$vector@NV?$allocator@N@std@@@std@@@2@@std@@QAEAAV?$vector@NV?$allocator@N@std@@@1@I@Z
_TEXT	SEGMENT
__My_data$ = -8						; size = 4
_this$ = -4						; size = 4
__Pos$ = 8						; size = 4
??A?$vector@V?$vector@NV?$allocator@N@std@@@std@@V?$allocator@V?$vector@NV?$allocator@N@std@@@std@@@2@@std@@QAEAAV?$vector@NV?$allocator@N@std@@@1@I@Z PROC ; std::vector<std::vector<double,std::allocator<double> >,std::allocator<std::vector<double,std::allocator<double> > > >::operator[], COMDAT
; _this$ = ecx

; 1451 :     _NODISCARD _Ty& operator[](const size_type _Pos) noexcept { // strengthened

	push	ebp
	mov	ebp, esp
	sub	esp, 8
	mov	DWORD PTR [ebp-8], -858993460		; ccccccccH
	mov	DWORD PTR [ebp-4], -858993460		; ccccccccH
	mov	DWORD PTR _this$[ebp], ecx

; 1452 :         auto& _My_data = _Mypair._Myval2;

	mov	eax, DWORD PTR _this$[ebp]
	mov	DWORD PTR __My_data$[ebp], eax
$LN4@operator:

; 1453 : #if _CONTAINER_DEBUG_LEVEL > 0
; 1454 :         _STL_VERIFY(

	mov	ecx, DWORD PTR __My_data$[ebp]
	mov	edx, DWORD PTR __My_data$[ebp]
	mov	eax, DWORD PTR [ecx+8]
	sub	eax, DWORD PTR [edx+4]
	sar	eax, 4
	cmp	DWORD PTR __Pos$[ebp], eax
	jae	SHORT $LN7@operator
	jmp	SHORT $LN2@operator
$LN7@operator:
	push	OFFSET ??_C@_0BO@PFKOHNJC@vector?5subscript?5out?5of?5range@
	push	OFFSET ??_C@_02DKCKIIND@?$CFs@
	push	0
	push	1455					; 000005afH
	push	OFFSET ??_C@_0GH@OOPCKGB@C?3?2Program?5Files?5?$CIx86?$CJ?2Microsof@
	push	2
	call	__CrtDbgReport
	add	esp, 24					; 00000018H
	cmp	eax, 1
	jne	SHORT $LN11@operator
	int	3
$LN11@operator:
	push	0
	push	1455					; 000005afH
	push	OFFSET ??_C@_1MO@NOOOHLI@?$AAC?$AA?3?$AA?2?$AAP?$AAr?$AAo?$AAg?$AAr?$AAa?$AAm?$AA?5?$AAF?$AAi?$AAl?$AAe@
	push	OFFSET ??_C@_1BEE@BOINOPIE@?$AAs?$AAt?$AAd?$AA?3?$AA?3?$AAv?$AAe?$AAc?$AAt?$AAo?$AAr?$AA?$DM?$AAc?$AAl?$AAa@
	push	OFFSET ??_C@_1EA@LEKOKFNB@?$AA?$CC?$AAv?$AAe?$AAc?$AAt?$AAo?$AAr?$AA?5?$AAs?$AAu?$AAb?$AAs?$AAc?$AAr?$AAi@
	call	__invalid_parameter
	add	esp, 20					; 00000014H

; 1455 :             _Pos < static_cast<size_type>(_My_data._Mylast - _My_data._Myfirst), "vector subscript out of range");

	xor	edx, edx
	jne	SHORT $LN7@operator
$LN2@operator:
	xor	eax, eax
	jne	SHORT $LN4@operator

; 1456 : #endif // _CONTAINER_DEBUG_LEVEL > 0
; 1457 : 
; 1458 :         return _My_data._Myfirst[_Pos];

	mov	eax, DWORD PTR __Pos$[ebp]
	shl	eax, 4
	mov	ecx, DWORD PTR __My_data$[ebp]
	add	eax, DWORD PTR [ecx+4]

; 1459 :     }

	add	esp, 8
	cmp	ebp, esp
	call	__RTC_CheckEsp
	mov	esp, ebp
	pop	ebp
	ret	4
??A?$vector@V?$vector@NV?$allocator@N@std@@@std@@V?$allocator@V?$vector@NV?$allocator@N@std@@@std@@@2@@std@@QAEAAV?$vector@NV?$allocator@N@std@@@1@I@Z ENDP ; std::vector<std::vector<double,std::allocator<double> >,std::allocator<std::vector<double,std::allocator<double> > > >::operator[]
_TEXT	ENDS
; Function compile flags: /Odtp /RTCsu
; File C:\Program Files (x86)\Microsoft Visual Studio\2019\Community\VC\Tools\MSVC\14.23.28105\include\vector
;	COMDAT ?capacity@?$vector@V?$vector@NV?$allocator@N@std@@@std@@V?$allocator@V?$vector@NV?$allocator@N@std@@@std@@@2@@std@@QBEIXZ
_TEXT	SEGMENT
__My_data$ = -8						; size = 4
_this$ = -4						; size = 4
?capacity@?$vector@V?$vector@NV?$allocator@N@std@@@std@@V?$allocator@V?$vector@NV?$allocator@N@std@@@std@@@2@@std@@QBEIXZ PROC ; std::vector<std::vector<double,std::allocator<double> >,std::allocator<std::vector<double,std::allocator<double> > > >::capacity, COMDAT
; _this$ = ecx

; 1446 :     _NODISCARD size_type capacity() const noexcept { // return current length of allocated storage

	push	ebp
	mov	ebp, esp
	sub	esp, 8
	mov	DWORD PTR [ebp-8], -858993460		; ccccccccH
	mov	DWORD PTR [ebp-4], -858993460		; ccccccccH
	mov	DWORD PTR _this$[ebp], ecx

; 1447 :         auto& _My_data = _Mypair._Myval2;

	mov	eax, DWORD PTR _this$[ebp]
	mov	DWORD PTR __My_data$[ebp], eax

; 1448 :         return static_cast<size_type>(_My_data._Myend - _My_data._Myfirst);

	mov	ecx, DWORD PTR __My_data$[ebp]
	mov	edx, DWORD PTR __My_data$[ebp]
	mov	eax, DWORD PTR [ecx+12]
	sub	eax, DWORD PTR [edx+4]
	sar	eax, 4

; 1449 :     }

	mov	esp, ebp
	pop	ebp
	ret	0
?capacity@?$vector@V?$vector@NV?$allocator@N@std@@@std@@V?$allocator@V?$vector@NV?$allocator@N@std@@@std@@@2@@std@@QBEIXZ ENDP ; std::vector<std::vector<double,std::allocator<double> >,std::allocator<std::vector<double,std::allocator<double> > > >::capacity
_TEXT	ENDS
; Function compile flags: /Odtp /RTCsu
; File C:\Program Files (x86)\Microsoft Visual Studio\2019\Community\VC\Tools\MSVC\14.23.28105\include\vector
;	COMDAT ?max_size@?$vector@V?$vector@NV?$allocator@N@std@@@std@@V?$allocator@V?$vector@NV?$allocator@N@std@@@std@@@2@@std@@QBEIXZ
_TEXT	SEGMENT
$T1 = -12						; size = 4
$T2 = -8						; size = 4
_this$ = -4						; size = 4
?max_size@?$vector@V?$vector@NV?$allocator@N@std@@@std@@V?$allocator@V?$vector@NV?$allocator@N@std@@@std@@@2@@std@@QBEIXZ PROC ; std::vector<std::vector<double,std::allocator<double> >,std::allocator<std::vector<double,std::allocator<double> > > >::max_size, COMDAT
; _this$ = ecx

; 1441 :     _NODISCARD size_type max_size() const noexcept { // return maximum possible length of sequence

	push	ebp
	mov	ebp, esp
	sub	esp, 12					; 0000000cH
	mov	DWORD PTR [ebp-12], -858993460		; ccccccccH
	mov	DWORD PTR [ebp-8], -858993460		; ccccccccH
	mov	DWORD PTR [ebp-4], -858993460		; ccccccccH
	mov	DWORD PTR _this$[ebp], ecx

; 1442 :         return _Min_value(

	mov	ecx, DWORD PTR _this$[ebp]
	call	?_Getal@?$vector@V?$vector@NV?$allocator@N@std@@@std@@V?$allocator@V?$vector@NV?$allocator@N@std@@@std@@@2@@std@@ABEABV?$allocator@V?$vector@NV?$allocator@N@std@@@std@@@2@XZ ; std::vector<std::vector<double,std::allocator<double> >,std::allocator<std::vector<double,std::allocator<double> > > >::_Getal
	push	eax
	call	?max_size@?$_Default_allocator_traits@V?$allocator@V?$vector@NV?$allocator@N@std@@@std@@@std@@@std@@SAIABV?$allocator@V?$vector@NV?$allocator@N@std@@@std@@@2@@Z ; std::_Default_allocator_traits<std::allocator<std::vector<double,std::allocator<double> > > >::max_size
	add	esp, 4
	mov	DWORD PTR $T2[ebp], eax
	call	?max@?$numeric_limits@H@std@@SAHXZ	; std::numeric_limits<int>::max
	mov	DWORD PTR $T1[ebp], eax
	lea	eax, DWORD PTR $T2[ebp]
	push	eax
	lea	ecx, DWORD PTR $T1[ebp]
	push	ecx
	call	??$_Min_value@I@std@@YAABIABI0@Z	; std::_Min_value<unsigned int>
	add	esp, 8
	mov	eax, DWORD PTR [eax]

; 1443 :             static_cast<size_type>((numeric_limits<difference_type>::max)()), _Alty_traits::max_size(_Getal()));
; 1444 :     }

	add	esp, 12					; 0000000cH
	cmp	ebp, esp
	call	__RTC_CheckEsp
	mov	esp, ebp
	pop	ebp
	ret	0
?max_size@?$vector@V?$vector@NV?$allocator@N@std@@@std@@V?$allocator@V?$vector@NV?$allocator@N@std@@@std@@@2@@std@@QBEIXZ ENDP ; std::vector<std::vector<double,std::allocator<double> >,std::allocator<std::vector<double,std::allocator<double> > > >::max_size
_TEXT	ENDS
; Function compile flags: /Odtp /RTCsu
; File C:\Program Files (x86)\Microsoft Visual Studio\2019\Community\VC\Tools\MSVC\14.23.28105\include\vector
;	COMDAT ?size@?$vector@V?$vector@NV?$allocator@N@std@@@std@@V?$allocator@V?$vector@NV?$allocator@N@std@@@std@@@2@@std@@QBEIXZ
_TEXT	SEGMENT
__My_data$ = -8						; size = 4
_this$ = -4						; size = 4
?size@?$vector@V?$vector@NV?$allocator@N@std@@@std@@V?$allocator@V?$vector@NV?$allocator@N@std@@@std@@@2@@std@@QBEIXZ PROC ; std::vector<std::vector<double,std::allocator<double> >,std::allocator<std::vector<double,std::allocator<double> > > >::size, COMDAT
; _this$ = ecx

; 1436 :     _NODISCARD size_type size() const noexcept { // return length of sequence

	push	ebp
	mov	ebp, esp
	sub	esp, 8
	mov	DWORD PTR [ebp-8], -858993460		; ccccccccH
	mov	DWORD PTR [ebp-4], -858993460		; ccccccccH
	mov	DWORD PTR _this$[ebp], ecx

; 1437 :         auto& _My_data = _Mypair._Myval2;

	mov	eax, DWORD PTR _this$[ebp]
	mov	DWORD PTR __My_data$[ebp], eax

; 1438 :         return static_cast<size_type>(_My_data._Mylast - _My_data._Myfirst);

	mov	ecx, DWORD PTR __My_data$[ebp]
	mov	edx, DWORD PTR __My_data$[ebp]
	mov	eax, DWORD PTR [ecx+8]
	sub	eax, DWORD PTR [edx+4]
	sar	eax, 4

; 1439 :     }

	mov	esp, ebp
	pop	ebp
	ret	0
?size@?$vector@V?$vector@NV?$allocator@N@std@@@std@@V?$allocator@V?$vector@NV?$allocator@N@std@@@std@@@2@@std@@QBEIXZ ENDP ; std::vector<std::vector<double,std::allocator<double> >,std::allocator<std::vector<double,std::allocator<double> > > >::size
_TEXT	ENDS
; Function compile flags: /Odtp /RTCsu
; File C:\Program Files (x86)\Microsoft Visual Studio\2019\Community\VC\Tools\MSVC\14.23.28105\include\vector
;	COMDAT ?push_back@?$vector@V?$vector@NV?$allocator@N@std@@@std@@V?$allocator@V?$vector@NV?$allocator@N@std@@@std@@@2@@std@@QAEXABV?$vector@NV?$allocator@N@std@@@2@@Z
_TEXT	SEGMENT
_this$ = -4						; size = 4
__Val$ = 8						; size = 4
?push_back@?$vector@V?$vector@NV?$allocator@N@std@@@std@@V?$allocator@V?$vector@NV?$allocator@N@std@@@std@@@2@@std@@QAEXABV?$vector@NV?$allocator@N@std@@@2@@Z PROC ; std::vector<std::vector<double,std::allocator<double> >,std::allocator<std::vector<double,std::allocator<double> > > >::push_back, COMDAT
; _this$ = ecx

; 667  :     void push_back(const _Ty& _Val) { // insert element at end, provide strong guarantee

	push	ebp
	mov	ebp, esp
	push	ecx
	mov	DWORD PTR [ebp-4], -858993460		; ccccccccH
	mov	DWORD PTR _this$[ebp], ecx

; 668  :         emplace_back(_Val);

	mov	eax, DWORD PTR __Val$[ebp]
	push	eax
	mov	ecx, DWORD PTR _this$[ebp]
	call	??$emplace_back@ABV?$vector@NV?$allocator@N@std@@@std@@@?$vector@V?$vector@NV?$allocator@N@std@@@std@@V?$allocator@V?$vector@NV?$allocator@N@std@@@std@@@2@@std@@QAE@ABV?$vector@NV?$allocator@N@std@@@1@@Z ; std::vector<std::vector<double,std::allocator<double> >,std::allocator<std::vector<double,std::allocator<double> > > >::emplace_back<std::vector<double,std::allocator<double> > const &>

; 669  :     }

	add	esp, 4
	cmp	ebp, esp
	call	__RTC_CheckEsp
	mov	esp, ebp
	pop	ebp
	ret	4
?push_back@?$vector@V?$vector@NV?$allocator@N@std@@@std@@V?$allocator@V?$vector@NV?$allocator@N@std@@@std@@@2@@std@@QAEXABV?$vector@NV?$allocator@N@std@@@2@@Z ENDP ; std::vector<std::vector<double,std::allocator<double> >,std::allocator<std::vector<double,std::allocator<double> > > >::push_back
_TEXT	ENDS
; Function compile flags: /Odtp /RTCsu
; File C:\Program Files (x86)\Microsoft Visual Studio\2019\Community\VC\Tools\MSVC\14.23.28105\include\xmemory
;	COMDAT ?max_size@?$_Default_allocator_traits@V?$allocator@V?$vector@NV?$allocator@N@std@@@std@@@std@@@std@@SAIABV?$allocator@V?$vector@NV?$allocator@N@std@@@std@@@2@@Z
_TEXT	SEGMENT
___formal$ = 8						; size = 4
?max_size@?$_Default_allocator_traits@V?$allocator@V?$vector@NV?$allocator@N@std@@@std@@@std@@@std@@SAIABV?$allocator@V?$vector@NV?$allocator@N@std@@@std@@@2@@Z PROC ; std::_Default_allocator_traits<std::allocator<std::vector<double,std::allocator<double> > > >::max_size, COMDAT

; 766  :     _NODISCARD static size_type max_size(const _Alloc&) noexcept {

	push	ebp
	mov	ebp, esp

; 767  :         return static_cast<size_t>(-1) / sizeof(value_type);

	mov	eax, 268435455				; 0fffffffH

; 768  :     }

	pop	ebp
	ret	0
?max_size@?$_Default_allocator_traits@V?$allocator@V?$vector@NV?$allocator@N@std@@@std@@@std@@@std@@SAIABV?$allocator@V?$vector@NV?$allocator@N@std@@@std@@@2@@Z ENDP ; std::_Default_allocator_traits<std::allocator<std::vector<double,std::allocator<double> > > >::max_size
_TEXT	ENDS
; Function compile flags: /Odtp /RTCsu
; File C:\Program Files (x86)\Microsoft Visual Studio\2019\Community\VC\Tools\MSVC\14.23.28105\include\xmemory
;	COMDAT ?allocate@?$allocator@V?$vector@NV?$allocator@N@std@@@std@@@std@@QAEPAV?$vector@NV?$allocator@N@std@@@2@I@Z
_TEXT	SEGMENT
_this$ = -4						; size = 4
__Count$ = 8						; size = 4
?allocate@?$allocator@V?$vector@NV?$allocator@N@std@@@std@@@std@@QAEPAV?$vector@NV?$allocator@N@std@@@2@I@Z PROC ; std::allocator<std::vector<double,std::allocator<double> > >::allocate, COMDAT
; _this$ = ecx

; 870  :     _NODISCARD _DECLSPEC_ALLOCATOR _Ty* allocate(_CRT_GUARDOVERFLOW const size_t _Count) {

	push	ebp
	mov	ebp, esp
	push	ecx
	mov	DWORD PTR [ebp-4], -858993460		; ccccccccH
	mov	DWORD PTR _this$[ebp], ecx

; 871  :         return static_cast<_Ty*>(_Allocate<_New_alignof<_Ty>>(_Get_size_of_n<sizeof(_Ty)>(_Count)));

	mov	eax, DWORD PTR __Count$[ebp]
	push	eax
	call	??$_Get_size_of_n@$0BA@@std@@YAII@Z	; std::_Get_size_of_n<16>
	add	esp, 4
	push	eax
	call	??$_Allocate@$07U_Default_allocate_traits@std@@$0A@@std@@YAPAXI@Z ; std::_Allocate<8,std::_Default_allocate_traits,0>
	add	esp, 4

; 872  :     }

	add	esp, 4
	cmp	ebp, esp
	call	__RTC_CheckEsp
	mov	esp, ebp
	pop	ebp
	ret	4
?allocate@?$allocator@V?$vector@NV?$allocator@N@std@@@std@@@std@@QAEPAV?$vector@NV?$allocator@N@std@@@2@I@Z ENDP ; std::allocator<std::vector<double,std::allocator<double> > >::allocate
_TEXT	ENDS
; Function compile flags: /Odtp /RTCsu
; File C:\Program Files (x86)\Microsoft Visual Studio\2019\Community\VC\Tools\MSVC\14.23.28105\include\xmemory
;	COMDAT ?deallocate@?$allocator@V?$vector@NV?$allocator@N@std@@@std@@@std@@QAEXQAV?$vector@NV?$allocator@N@std@@@2@I@Z
_TEXT	SEGMENT
_this$ = -4						; size = 4
__Ptr$ = 8						; size = 4
__Count$ = 12						; size = 4
?deallocate@?$allocator@V?$vector@NV?$allocator@N@std@@@std@@@std@@QAEXQAV?$vector@NV?$allocator@N@std@@@2@I@Z PROC ; std::allocator<std::vector<double,std::allocator<double> > >::deallocate, COMDAT
; _this$ = ecx

; 865  :     void deallocate(_Ty* const _Ptr, const size_t _Count) {

	push	ebp
	mov	ebp, esp
	push	ecx
	mov	DWORD PTR [ebp-4], -858993460		; ccccccccH
	mov	DWORD PTR _this$[ebp], ecx

; 866  :         // no overflow check on the following multiply; we assume _Allocate did that check
; 867  :         _Deallocate<_New_alignof<_Ty>>(_Ptr, sizeof(_Ty) * _Count);

	mov	eax, DWORD PTR __Count$[ebp]
	shl	eax, 4
	push	eax
	mov	ecx, DWORD PTR __Ptr$[ebp]
	push	ecx
	call	??$_Deallocate@$07$0A@@std@@YAXPAXI@Z	; std::_Deallocate<8,0>
	add	esp, 8

; 868  :     }

	add	esp, 4
	cmp	ebp, esp
	call	__RTC_CheckEsp
	mov	esp, ebp
	pop	ebp
	ret	8
?deallocate@?$allocator@V?$vector@NV?$allocator@N@std@@@std@@@std@@QAEXQAV?$vector@NV?$allocator@N@std@@@2@I@Z ENDP ; std::allocator<std::vector<double,std::allocator<double> > >::deallocate
_TEXT	ENDS
; Function compile flags: /Odtp /RTCsu
;	COMDAT ??_G?$vector@NV?$allocator@N@std@@@std@@QAEPAXI@Z
_TEXT	SEGMENT
_this$ = -4						; size = 4
___flags$ = 8						; size = 4
??_G?$vector@NV?$allocator@N@std@@@std@@QAEPAXI@Z PROC	; std::vector<double,std::allocator<double> >::`scalar deleting destructor', COMDAT
; _this$ = ecx
	push	ebp
	mov	ebp, esp
	push	ecx
	mov	DWORD PTR [ebp-4], -858993460		; ccccccccH
	mov	DWORD PTR _this$[ebp], ecx
	mov	ecx, DWORD PTR _this$[ebp]
	call	??1?$vector@NV?$allocator@N@std@@@std@@QAE@XZ ; std::vector<double,std::allocator<double> >::~vector<double,std::allocator<double> >
	mov	eax, DWORD PTR ___flags$[ebp]
	and	eax, 1
	je	SHORT $LN2@scalar
	push	16					; 00000010H
	mov	ecx, DWORD PTR _this$[ebp]
	push	ecx
	call	??3@YAXPAXI@Z				; operator delete
	add	esp, 8
$LN2@scalar:
	mov	eax, DWORD PTR _this$[ebp]
	add	esp, 4
	cmp	ebp, esp
	call	__RTC_CheckEsp
	mov	esp, ebp
	pop	ebp
	ret	4
??_G?$vector@NV?$allocator@N@std@@@std@@QAEPAXI@Z ENDP	; std::vector<double,std::allocator<double> >::`scalar deleting destructor'
_TEXT	ENDS
; Function compile flags: /Odtp /RTCsu
; File C:\Program Files (x86)\Microsoft Visual Studio\2019\Community\VC\Tools\MSVC\14.23.28105\include\xmemory
;	COMDAT ?_Get_first@?$_Compressed_pair@V?$allocator@N@std@@V?$_Vector_val@U?$_Simple_types@N@std@@@2@$00@std@@QBEABV?$allocator@N@2@XZ
_TEXT	SEGMENT
_this$ = -4						; size = 4
?_Get_first@?$_Compressed_pair@V?$allocator@N@std@@V?$_Vector_val@U?$_Simple_types@N@std@@@2@$00@std@@QBEABV?$allocator@N@2@XZ PROC ; std::_Compressed_pair<std::allocator<double>,std::_Vector_val<std::_Simple_types<double> >,1>::_Get_first, COMDAT
; _this$ = ecx

; 1424 :     const _Ty1& _Get_first() const noexcept {

	push	ebp
	mov	ebp, esp
	push	ecx
	mov	DWORD PTR [ebp-4], -858993460		; ccccccccH
	mov	DWORD PTR _this$[ebp], ecx

; 1425 :         return *this;

	mov	eax, DWORD PTR _this$[ebp]

; 1426 :     }

	mov	esp, ebp
	pop	ebp
	ret	0
?_Get_first@?$_Compressed_pair@V?$allocator@N@std@@V?$_Vector_val@U?$_Simple_types@N@std@@@2@$00@std@@QBEABV?$allocator@N@2@XZ ENDP ; std::_Compressed_pair<std::allocator<double>,std::_Vector_val<std::_Simple_types<double> >,1>::_Get_first
_TEXT	ENDS
; Function compile flags: /Odtp /RTCsu
; File C:\Program Files (x86)\Microsoft Visual Studio\2019\Community\VC\Tools\MSVC\14.23.28105\include\xmemory
;	COMDAT ?_Get_first@?$_Compressed_pair@V?$allocator@N@std@@V?$_Vector_val@U?$_Simple_types@N@std@@@2@$00@std@@QAEAAV?$allocator@N@2@XZ
_TEXT	SEGMENT
_this$ = -4						; size = 4
?_Get_first@?$_Compressed_pair@V?$allocator@N@std@@V?$_Vector_val@U?$_Simple_types@N@std@@@2@$00@std@@QAEAAV?$allocator@N@2@XZ PROC ; std::_Compressed_pair<std::allocator<double>,std::_Vector_val<std::_Simple_types<double> >,1>::_Get_first, COMDAT
; _this$ = ecx

; 1420 :     _Ty1& _Get_first() noexcept {

	push	ebp
	mov	ebp, esp
	push	ecx
	mov	DWORD PTR [ebp-4], -858993460		; ccccccccH
	mov	DWORD PTR _this$[ebp], ecx

; 1421 :         return *this;

	mov	eax, DWORD PTR _this$[ebp]

; 1422 :     }

	mov	esp, ebp
	pop	ebp
	ret	0
?_Get_first@?$_Compressed_pair@V?$allocator@N@std@@V?$_Vector_val@U?$_Simple_types@N@std@@@2@$00@std@@QAEAAV?$allocator@N@2@XZ ENDP ; std::_Compressed_pair<std::allocator<double>,std::_Vector_val<std::_Simple_types<double> >,1>::_Get_first
_TEXT	ENDS
; Function compile flags: /Odtp /RTCsu
; File C:\Program Files (x86)\Microsoft Visual Studio\2019\Community\VC\Tools\MSVC\14.23.28105\include\vector
;	COMDAT ?_Take_contents@?$_Vector_val@U?$_Simple_types@N@std@@@std@@QAEXAAV12@@Z
_TEXT	SEGMENT
_this$ = -4						; size = 4
__Right$ = 8						; size = 4
?_Take_contents@?$_Vector_val@U?$_Simple_types@N@std@@@std@@QAEXAAV12@@Z PROC ; std::_Vector_val<std::_Simple_types<double> >::_Take_contents, COMDAT
; _this$ = ecx

; 324  :     void _Take_contents(_Vector_val& _Right) noexcept {

	push	ebp
	mov	ebp, esp
	push	ecx
	mov	DWORD PTR [ebp-4], -858993460		; ccccccccH
	mov	DWORD PTR _this$[ebp], ecx

; 325  :         this->_Swap_proxy_and_iterators(_Right);

	mov	eax, DWORD PTR __Right$[ebp]
	push	eax
	mov	ecx, DWORD PTR _this$[ebp]
	call	?_Swap_proxy_and_iterators@_Container_base12@std@@QAEXAAU12@@Z ; std::_Container_base12::_Swap_proxy_and_iterators

; 326  :         _Myfirst = _Right._Myfirst;

	mov	ecx, DWORD PTR _this$[ebp]
	mov	edx, DWORD PTR __Right$[ebp]
	mov	eax, DWORD PTR [edx+4]
	mov	DWORD PTR [ecx+4], eax

; 327  :         _Mylast  = _Right._Mylast;

	mov	ecx, DWORD PTR _this$[ebp]
	mov	edx, DWORD PTR __Right$[ebp]
	mov	eax, DWORD PTR [edx+8]
	mov	DWORD PTR [ecx+8], eax

; 328  :         _Myend   = _Right._Myend;

	mov	ecx, DWORD PTR _this$[ebp]
	mov	edx, DWORD PTR __Right$[ebp]
	mov	eax, DWORD PTR [edx+12]
	mov	DWORD PTR [ecx+12], eax

; 329  : 
; 330  :         _Right._Myfirst = pointer();

	mov	ecx, DWORD PTR __Right$[ebp]
	mov	DWORD PTR [ecx+4], 0

; 331  :         _Right._Mylast  = pointer();

	mov	edx, DWORD PTR __Right$[ebp]
	mov	DWORD PTR [edx+8], 0

; 332  :         _Right._Myend   = pointer();

	mov	eax, DWORD PTR __Right$[ebp]
	mov	DWORD PTR [eax+12], 0

; 333  :     }

	add	esp, 4
	cmp	ebp, esp
	call	__RTC_CheckEsp
	mov	esp, ebp
	pop	ebp
	ret	4
?_Take_contents@?$_Vector_val@U?$_Simple_types@N@std@@@std@@QAEXAAV12@@Z ENDP ; std::_Vector_val<std::_Simple_types<double> >::_Take_contents
_TEXT	ENDS
; Function compile flags: /Odtp /RTCsu
; File C:\Program Files (x86)\Microsoft Visual Studio\2019\Community\VC\Tools\MSVC\14.23.28105\include\vector
;	COMDAT ??0?$_Vector_val@U?$_Simple_types@N@std@@@std@@QAE@XZ
_TEXT	SEGMENT
_this$ = -4						; size = 4
??0?$_Vector_val@U?$_Simple_types@N@std@@@std@@QAE@XZ PROC ; std::_Vector_val<std::_Simple_types<double> >::_Vector_val<std::_Simple_types<double> >, COMDAT
; _this$ = ecx

; 314  :     _Vector_val() : _Myfirst(), _Mylast(), _Myend() { // initialize values

	push	ebp
	mov	ebp, esp
	push	ecx
	mov	DWORD PTR [ebp-4], -858993460		; ccccccccH
	mov	DWORD PTR _this$[ebp], ecx
	mov	ecx, DWORD PTR _this$[ebp]
	call	??0_Container_base12@std@@QAE@XZ	; std::_Container_base12::_Container_base12
	mov	eax, DWORD PTR _this$[ebp]
	mov	DWORD PTR [eax+4], 0
	mov	ecx, DWORD PTR _this$[ebp]
	mov	DWORD PTR [ecx+8], 0
	mov	edx, DWORD PTR _this$[ebp]
	mov	DWORD PTR [edx+12], 0

; 315  :     }

	mov	eax, DWORD PTR _this$[ebp]
	add	esp, 4
	cmp	ebp, esp
	call	__RTC_CheckEsp
	mov	esp, ebp
	pop	ebp
	ret	0
??0?$_Vector_val@U?$_Simple_types@N@std@@@std@@QAE@XZ ENDP ; std::_Vector_val<std::_Simple_types<double> >::_Vector_val<std::_Simple_types<double> >
_TEXT	ENDS
; Function compile flags: /Odtp /RTCsu
; File C:\Program Files (x86)\Microsoft Visual Studio\2019\Community\VC\Tools\MSVC\14.23.28105\include\vector
;	COMDAT ?_Getal@?$vector@NV?$allocator@N@std@@@std@@ABEABV?$allocator@N@2@XZ
_TEXT	SEGMENT
_this$ = -4						; size = 4
?_Getal@?$vector@NV?$allocator@N@std@@@std@@ABEABV?$allocator@N@2@XZ PROC ; std::vector<double,std::allocator<double> >::_Getal, COMDAT
; _this$ = ecx

; 1692 :     const _Alty& _Getal() const noexcept { // return const reference to allocator

	push	ebp
	mov	ebp, esp
	push	ecx
	mov	DWORD PTR [ebp-4], -858993460		; ccccccccH
	mov	DWORD PTR _this$[ebp], ecx

; 1693 :         return _Mypair._Get_first();

	mov	ecx, DWORD PTR _this$[ebp]
	call	?_Get_first@?$_Compressed_pair@V?$allocator@N@std@@V?$_Vector_val@U?$_Simple_types@N@std@@@2@$00@std@@QBEABV?$allocator@N@2@XZ ; std::_Compressed_pair<std::allocator<double>,std::_Vector_val<std::_Simple_types<double> >,1>::_Get_first

; 1694 :     }

	add	esp, 4
	cmp	ebp, esp
	call	__RTC_CheckEsp
	mov	esp, ebp
	pop	ebp
	ret	0
?_Getal@?$vector@NV?$allocator@N@std@@@std@@ABEABV?$allocator@N@2@XZ ENDP ; std::vector<double,std::allocator<double> >::_Getal
_TEXT	ENDS
; Function compile flags: /Odtp /RTCsu
; File C:\Program Files (x86)\Microsoft Visual Studio\2019\Community\VC\Tools\MSVC\14.23.28105\include\vector
;	COMDAT ?_Getal@?$vector@NV?$allocator@N@std@@@std@@AAEAAV?$allocator@N@2@XZ
_TEXT	SEGMENT
_this$ = -4						; size = 4
?_Getal@?$vector@NV?$allocator@N@std@@@std@@AAEAAV?$allocator@N@2@XZ PROC ; std::vector<double,std::allocator<double> >::_Getal, COMDAT
; _this$ = ecx

; 1688 :     _Alty& _Getal() noexcept { // return reference to allocator

	push	ebp
	mov	ebp, esp
	push	ecx
	mov	DWORD PTR [ebp-4], -858993460		; ccccccccH
	mov	DWORD PTR _this$[ebp], ecx

; 1689 :         return _Mypair._Get_first();

	mov	ecx, DWORD PTR _this$[ebp]
	call	?_Get_first@?$_Compressed_pair@V?$allocator@N@std@@V?$_Vector_val@U?$_Simple_types@N@std@@@2@$00@std@@QAEAAV?$allocator@N@2@XZ ; std::_Compressed_pair<std::allocator<double>,std::_Vector_val<std::_Simple_types<double> >,1>::_Get_first

; 1690 :     }

	add	esp, 4
	cmp	ebp, esp
	call	__RTC_CheckEsp
	mov	esp, ebp
	pop	ebp
	ret	0
?_Getal@?$vector@NV?$allocator@N@std@@@std@@AAEAAV?$allocator@N@2@XZ ENDP ; std::vector<double,std::allocator<double> >::_Getal
_TEXT	ENDS
; Function compile flags: /Odtp /RTCsu
; File C:\Program Files (x86)\Microsoft Visual Studio\2019\Community\VC\Tools\MSVC\14.23.28105\include\vector
;	COMDAT ?_Tidy@?$vector@NV?$allocator@N@std@@@std@@AAEXXZ
_TEXT	SEGMENT
__Myend$ = -32						; size = 4
__Mylast$ = -28						; size = 4
__Myfirst$ = -24					; size = 4
__My_data$ = -20					; size = 4
_this$ = -16						; size = 4
__$EHRec$ = -12						; size = 12
?_Tidy@?$vector@NV?$allocator@N@std@@@std@@AAEXXZ PROC	; std::vector<double,std::allocator<double> >::_Tidy, COMDAT
; _this$ = ecx

; 1642 :     void _Tidy() noexcept { // free all storage

	push	ebp
	mov	ebp, esp
	push	-1
	push	__ehhandler$?_Tidy@?$vector@NV?$allocator@N@std@@@std@@AAEXXZ
	mov	eax, DWORD PTR fs:0
	push	eax
	sub	esp, 20					; 00000014H
	mov	eax, -858993460				; ccccccccH
	mov	DWORD PTR [ebp-32], eax
	mov	DWORD PTR [ebp-28], eax
	mov	DWORD PTR [ebp-24], eax
	mov	DWORD PTR [ebp-20], eax
	mov	DWORD PTR [ebp-16], eax
	mov	eax, DWORD PTR ___security_cookie
	xor	eax, ebp
	push	eax
	lea	eax, DWORD PTR __$EHRec$[ebp]
	mov	DWORD PTR fs:0, eax
	mov	DWORD PTR _this$[ebp], ecx

; 1643 :         auto& _My_data    = _Mypair._Myval2;

	mov	eax, DWORD PTR _this$[ebp]
	mov	DWORD PTR __My_data$[ebp], eax

; 1644 :         pointer& _Myfirst = _My_data._Myfirst;

	mov	ecx, DWORD PTR __My_data$[ebp]
	add	ecx, 4
	mov	DWORD PTR __Myfirst$[ebp], ecx

; 1645 :         pointer& _Mylast  = _My_data._Mylast;

	mov	edx, DWORD PTR __My_data$[ebp]
	add	edx, 8
	mov	DWORD PTR __Mylast$[ebp], edx

; 1646 :         pointer& _Myend   = _My_data._Myend;

	mov	eax, DWORD PTR __My_data$[ebp]
	add	eax, 12					; 0000000cH
	mov	DWORD PTR __Myend$[ebp], eax

; 1647 : 
; 1648 :         _My_data._Orphan_all();

	mov	ecx, DWORD PTR __My_data$[ebp]
	call	?_Orphan_all@_Container_base12@std@@QAEXXZ ; std::_Container_base12::_Orphan_all

; 1649 : 
; 1650 :         if (_Myfirst) { // destroy and deallocate old array

	mov	ecx, DWORD PTR __Myfirst$[ebp]
	cmp	DWORD PTR [ecx], 0
	je	SHORT $LN3@Tidy

; 1651 :             _Destroy(_Myfirst, _Mylast);

	mov	edx, DWORD PTR __Mylast$[ebp]
	mov	eax, DWORD PTR [edx]
	push	eax
	mov	ecx, DWORD PTR __Myfirst$[ebp]
	mov	edx, DWORD PTR [ecx]
	push	edx
	mov	ecx, DWORD PTR _this$[ebp]
	call	?_Destroy@?$vector@NV?$allocator@N@std@@@std@@AAEXPAN0@Z ; std::vector<double,std::allocator<double> >::_Destroy

; 1652 :             _Getal().deallocate(_Myfirst, static_cast<size_type>(_Myend - _Myfirst));

	mov	eax, DWORD PTR __Myend$[ebp]
	mov	ecx, DWORD PTR __Myfirst$[ebp]
	mov	edx, DWORD PTR [eax]
	sub	edx, DWORD PTR [ecx]
	sar	edx, 3
	push	edx
	mov	eax, DWORD PTR __Myfirst$[ebp]
	mov	ecx, DWORD PTR [eax]
	push	ecx
	mov	ecx, DWORD PTR _this$[ebp]
	call	?_Getal@?$vector@NV?$allocator@N@std@@@std@@AAEAAV?$allocator@N@2@XZ ; std::vector<double,std::allocator<double> >::_Getal
	mov	ecx, eax
	call	?deallocate@?$allocator@N@std@@QAEXQANI@Z ; std::allocator<double>::deallocate

; 1653 : 
; 1654 :             _Myfirst = pointer();

	mov	edx, DWORD PTR __Myfirst$[ebp]
	mov	DWORD PTR [edx], 0

; 1655 :             _Mylast  = pointer();

	mov	eax, DWORD PTR __Mylast$[ebp]
	mov	DWORD PTR [eax], 0

; 1656 :             _Myend   = pointer();

	mov	ecx, DWORD PTR __Myend$[ebp]
	mov	DWORD PTR [ecx], 0
$LN3@Tidy:

; 1657 :         }
; 1658 :     }

	mov	ecx, DWORD PTR __$EHRec$[ebp]
	mov	DWORD PTR fs:0, ecx
	pop	ecx
	add	esp, 32					; 00000020H
	cmp	ebp, esp
	call	__RTC_CheckEsp
	mov	esp, ebp
	pop	ebp
	ret	0
_TEXT	ENDS
;	COMDAT text$x
text$x	SEGMENT
__ehhandler$?_Tidy@?$vector@NV?$allocator@N@std@@@std@@AAEXXZ:
	mov	edx, DWORD PTR [esp+8]
	lea	eax, DWORD PTR [edx+12]
	mov	ecx, DWORD PTR [edx-24]
	xor	ecx, eax
	call	@__security_check_cookie@4
	mov	eax, OFFSET __ehfuncinfo$?_Tidy@?$vector@NV?$allocator@N@std@@@std@@AAEXXZ
	jmp	___CxxFrameHandler3
text$x	ENDS
?_Tidy@?$vector@NV?$allocator@N@std@@@std@@AAEXXZ ENDP	; std::vector<double,std::allocator<double> >::_Tidy
; Function compile flags: /Odtp /RTCsu
; File C:\Program Files (x86)\Microsoft Visual Studio\2019\Community\VC\Tools\MSVC\14.23.28105\include\vector
;	COMDAT ?_Buy_raw@?$vector@NV?$allocator@N@std@@@std@@AAEXI@Z
_TEXT	SEGMENT
__Newvec$ = -24						; size = 4
__Myend$ = -20						; size = 4
__Mylast$ = -16						; size = 4
__Myfirst$ = -12					; size = 4
__My_data$ = -8						; size = 4
_this$ = -4						; size = 4
__Newcapacity$ = 8					; size = 4
?_Buy_raw@?$vector@NV?$allocator@N@std@@@std@@AAEXI@Z PROC ; std::vector<double,std::allocator<double> >::_Buy_raw, COMDAT
; _this$ = ecx

; 1589 :     void _Buy_raw(const size_type _Newcapacity) {

	push	ebp
	mov	ebp, esp
	sub	esp, 24					; 00000018H
	mov	eax, -858993460				; ccccccccH
	mov	DWORD PTR [ebp-24], eax
	mov	DWORD PTR [ebp-20], eax
	mov	DWORD PTR [ebp-16], eax
	mov	DWORD PTR [ebp-12], eax
	mov	DWORD PTR [ebp-8], eax
	mov	DWORD PTR [ebp-4], eax
	mov	DWORD PTR _this$[ebp], ecx

; 1590 :         // allocate array with _Newcapacity elements
; 1591 :         auto& _My_data    = _Mypair._Myval2;

	mov	eax, DWORD PTR _this$[ebp]
	mov	DWORD PTR __My_data$[ebp], eax

; 1592 :         pointer& _Myfirst = _My_data._Myfirst;

	mov	ecx, DWORD PTR __My_data$[ebp]
	add	ecx, 4
	mov	DWORD PTR __Myfirst$[ebp], ecx

; 1593 :         pointer& _Mylast  = _My_data._Mylast;

	mov	edx, DWORD PTR __My_data$[ebp]
	add	edx, 8
	mov	DWORD PTR __Mylast$[ebp], edx

; 1594 :         pointer& _Myend   = _My_data._Myend;

	mov	eax, DWORD PTR __My_data$[ebp]
	add	eax, 12					; 0000000cH
	mov	DWORD PTR __Myend$[ebp], eax

; 1595 : 
; 1596 :         _STL_INTERNAL_CHECK(!_Myfirst && !_Mylast && !_Myend); // check that *this is tidy
; 1597 :         _STL_INTERNAL_CHECK(0 < _Newcapacity && _Newcapacity <= max_size());
; 1598 : 
; 1599 :         const auto _Newvec = _Getal().allocate(_Newcapacity);

	mov	ecx, DWORD PTR __Newcapacity$[ebp]
	push	ecx
	mov	ecx, DWORD PTR _this$[ebp]
	call	?_Getal@?$vector@NV?$allocator@N@std@@@std@@AAEAAV?$allocator@N@2@XZ ; std::vector<double,std::allocator<double> >::_Getal
	mov	ecx, eax
	call	?allocate@?$allocator@N@std@@QAEPANI@Z	; std::allocator<double>::allocate
	mov	DWORD PTR __Newvec$[ebp], eax

; 1600 :         _Myfirst           = _Newvec;

	mov	edx, DWORD PTR __Myfirst$[ebp]
	mov	eax, DWORD PTR __Newvec$[ebp]
	mov	DWORD PTR [edx], eax

; 1601 :         _Mylast            = _Newvec;

	mov	ecx, DWORD PTR __Mylast$[ebp]
	mov	edx, DWORD PTR __Newvec$[ebp]
	mov	DWORD PTR [ecx], edx

; 1602 :         _Myend             = _Newvec + _Newcapacity;

	mov	eax, DWORD PTR __Newcapacity$[ebp]
	mov	ecx, DWORD PTR __Newvec$[ebp]
	lea	edx, DWORD PTR [ecx+eax*8]
	mov	eax, DWORD PTR __Myend$[ebp]
	mov	DWORD PTR [eax], edx

; 1603 :     }

	add	esp, 24					; 00000018H
	cmp	ebp, esp
	call	__RTC_CheckEsp
	mov	esp, ebp
	pop	ebp
	ret	4
?_Buy_raw@?$vector@NV?$allocator@N@std@@@std@@AAEXI@Z ENDP ; std::vector<double,std::allocator<double> >::_Buy_raw
_TEXT	ENDS
; Function compile flags: /Odtp /RTCsu
; File C:\Program Files (x86)\Microsoft Visual Studio\2019\Community\VC\Tools\MSVC\14.23.28105\include\vector
;	COMDAT ?_Destroy@?$vector@NV?$allocator@N@std@@@std@@AAEXPAN0@Z
_TEXT	SEGMENT
_this$ = -4						; size = 4
__First$ = 8						; size = 4
__Last$ = 12						; size = 4
?_Destroy@?$vector@NV?$allocator@N@std@@@std@@AAEXPAN0@Z PROC ; std::vector<double,std::allocator<double> >::_Destroy, COMDAT
; _this$ = ecx

; 1567 :     void _Destroy(pointer _First, pointer _Last) { // destroy [_First, _Last) using allocator

	push	ebp
	mov	ebp, esp
	push	ecx
	mov	DWORD PTR [ebp-4], -858993460		; ccccccccH
	mov	DWORD PTR _this$[ebp], ecx

; 1568 :         _Destroy_range(_First, _Last, _Getal());

	mov	ecx, DWORD PTR _this$[ebp]
	call	?_Getal@?$vector@NV?$allocator@N@std@@@std@@AAEAAV?$allocator@N@2@XZ ; std::vector<double,std::allocator<double> >::_Getal
	push	eax
	mov	eax, DWORD PTR __Last$[ebp]
	push	eax
	mov	ecx, DWORD PTR __First$[ebp]
	push	ecx
	call	??$_Destroy_range@V?$allocator@N@std@@@std@@YAXPANQANAAV?$allocator@N@0@@Z ; std::_Destroy_range<std::allocator<double> >
	add	esp, 12					; 0000000cH

; 1569 :     }

	add	esp, 4
	cmp	ebp, esp
	call	__RTC_CheckEsp
	mov	esp, ebp
	pop	ebp
	ret	8
?_Destroy@?$vector@NV?$allocator@N@std@@@std@@AAEXPAN0@Z ENDP ; std::vector<double,std::allocator<double> >::_Destroy
_TEXT	ENDS
; Function compile flags: /Odtp /RTCsu
; File C:\Program Files (x86)\Microsoft Visual Studio\2019\Community\VC\Tools\MSVC\14.23.28105\include\vector
;	COMDAT ??A?$vector@NV?$allocator@N@std@@@std@@QAEAANI@Z
_TEXT	SEGMENT
__My_data$ = -8						; size = 4
_this$ = -4						; size = 4
__Pos$ = 8						; size = 4
??A?$vector@NV?$allocator@N@std@@@std@@QAEAANI@Z PROC	; std::vector<double,std::allocator<double> >::operator[], COMDAT
; _this$ = ecx

; 1451 :     _NODISCARD _Ty& operator[](const size_type _Pos) noexcept { // strengthened

	push	ebp
	mov	ebp, esp
	sub	esp, 8
	mov	DWORD PTR [ebp-8], -858993460		; ccccccccH
	mov	DWORD PTR [ebp-4], -858993460		; ccccccccH
	mov	DWORD PTR _this$[ebp], ecx

; 1452 :         auto& _My_data = _Mypair._Myval2;

	mov	eax, DWORD PTR _this$[ebp]
	mov	DWORD PTR __My_data$[ebp], eax
$LN4@operator:

; 1453 : #if _CONTAINER_DEBUG_LEVEL > 0
; 1454 :         _STL_VERIFY(

	mov	ecx, DWORD PTR __My_data$[ebp]
	mov	edx, DWORD PTR __My_data$[ebp]
	mov	eax, DWORD PTR [ecx+8]
	sub	eax, DWORD PTR [edx+4]
	sar	eax, 3
	cmp	DWORD PTR __Pos$[ebp], eax
	jae	SHORT $LN7@operator
	jmp	SHORT $LN2@operator
$LN7@operator:
	push	OFFSET ??_C@_0BO@PFKOHNJC@vector?5subscript?5out?5of?5range@
	push	OFFSET ??_C@_02DKCKIIND@?$CFs@
	push	0
	push	1455					; 000005afH
	push	OFFSET ??_C@_0GH@OOPCKGB@C?3?2Program?5Files?5?$CIx86?$CJ?2Microsof@
	push	2
	call	__CrtDbgReport
	add	esp, 24					; 00000018H
	cmp	eax, 1
	jne	SHORT $LN11@operator
	int	3
$LN11@operator:
	push	0
	push	1455					; 000005afH
	push	OFFSET ??_C@_1MO@NOOOHLI@?$AAC?$AA?3?$AA?2?$AAP?$AAr?$AAo?$AAg?$AAr?$AAa?$AAm?$AA?5?$AAF?$AAi?$AAl?$AAe@
	push	OFFSET ??_C@_1HO@GLEAPAMD@?$AAs?$AAt?$AAd?$AA?3?$AA?3?$AAv?$AAe?$AAc?$AAt?$AAo?$AAr?$AA?$DM?$AAd?$AAo?$AAu@
	push	OFFSET ??_C@_1EA@LEKOKFNB@?$AA?$CC?$AAv?$AAe?$AAc?$AAt?$AAo?$AAr?$AA?5?$AAs?$AAu?$AAb?$AAs?$AAc?$AAr?$AAi@
	call	__invalid_parameter
	add	esp, 20					; 00000014H

; 1455 :             _Pos < static_cast<size_type>(_My_data._Mylast - _My_data._Myfirst), "vector subscript out of range");

	xor	edx, edx
	jne	SHORT $LN7@operator
$LN2@operator:
	xor	eax, eax
	jne	SHORT $LN4@operator

; 1456 : #endif // _CONTAINER_DEBUG_LEVEL > 0
; 1457 : 
; 1458 :         return _My_data._Myfirst[_Pos];

	mov	ecx, DWORD PTR __My_data$[ebp]
	mov	edx, DWORD PTR [ecx+4]
	mov	eax, DWORD PTR __Pos$[ebp]
	lea	eax, DWORD PTR [edx+eax*8]

; 1459 :     }

	add	esp, 8
	cmp	ebp, esp
	call	__RTC_CheckEsp
	mov	esp, ebp
	pop	ebp
	ret	4
??A?$vector@NV?$allocator@N@std@@@std@@QAEAANI@Z ENDP	; std::vector<double,std::allocator<double> >::operator[]
_TEXT	ENDS
; Function compile flags: /Odtp /RTCsu
; File C:\Program Files (x86)\Microsoft Visual Studio\2019\Community\VC\Tools\MSVC\14.23.28105\include\vector
;	COMDAT ?size@?$vector@NV?$allocator@N@std@@@std@@QBEIXZ
_TEXT	SEGMENT
__My_data$ = -8						; size = 4
_this$ = -4						; size = 4
?size@?$vector@NV?$allocator@N@std@@@std@@QBEIXZ PROC	; std::vector<double,std::allocator<double> >::size, COMDAT
; _this$ = ecx

; 1436 :     _NODISCARD size_type size() const noexcept { // return length of sequence

	push	ebp
	mov	ebp, esp
	sub	esp, 8
	mov	DWORD PTR [ebp-8], -858993460		; ccccccccH
	mov	DWORD PTR [ebp-4], -858993460		; ccccccccH
	mov	DWORD PTR _this$[ebp], ecx

; 1437 :         auto& _My_data = _Mypair._Myval2;

	mov	eax, DWORD PTR _this$[ebp]
	mov	DWORD PTR __My_data$[ebp], eax

; 1438 :         return static_cast<size_type>(_My_data._Mylast - _My_data._Myfirst);

	mov	ecx, DWORD PTR __My_data$[ebp]
	mov	edx, DWORD PTR __My_data$[ebp]
	mov	eax, DWORD PTR [ecx+8]
	sub	eax, DWORD PTR [edx+4]
	sar	eax, 3

; 1439 :     }

	mov	esp, ebp
	pop	ebp
	ret	0
?size@?$vector@NV?$allocator@N@std@@@std@@QBEIXZ ENDP	; std::vector<double,std::allocator<double> >::size
_TEXT	ENDS
; Function compile flags: /Odtp /RTCsu
; File C:\Program Files (x86)\Microsoft Visual Studio\2019\Community\VC\Tools\MSVC\14.23.28105\include\vector
;	COMDAT ??1?$vector@NV?$allocator@N@std@@@std@@QAE@XZ
_TEXT	SEGMENT
$T2 = -36						; size = 4
_$S19$ = -25						; size = 1
__Alproxy$ = -20					; size = 4
_this$ = -16						; size = 4
__$EHRec$ = -12						; size = 12
??1?$vector@NV?$allocator@N@std@@@std@@QAE@XZ PROC	; std::vector<double,std::allocator<double> >::~vector<double,std::allocator<double> >, COMDAT
; _this$ = ecx

; 623  :     ~vector() noexcept {

	push	ebp
	mov	ebp, esp
	push	-1
	push	__ehhandler$??1?$vector@NV?$allocator@N@std@@@std@@QAE@XZ
	mov	eax, DWORD PTR fs:0
	push	eax
	sub	esp, 24					; 00000018H
	mov	eax, -858993460				; ccccccccH
	mov	DWORD PTR [ebp-36], eax
	mov	DWORD PTR [ebp-32], eax
	mov	DWORD PTR [ebp-28], eax
	mov	DWORD PTR [ebp-24], eax
	mov	DWORD PTR [ebp-20], eax
	mov	DWORD PTR [ebp-16], eax
	mov	eax, DWORD PTR ___security_cookie
	xor	eax, ebp
	push	eax
	lea	eax, DWORD PTR __$EHRec$[ebp]
	mov	DWORD PTR fs:0, eax
	mov	DWORD PTR _this$[ebp], ecx

; 624  :         _Tidy();

	mov	ecx, DWORD PTR _this$[ebp]
	call	?_Tidy@?$vector@NV?$allocator@N@std@@@std@@AAEXXZ ; std::vector<double,std::allocator<double> >::_Tidy

; 625  : #if _ITERATOR_DEBUG_LEVEL != 0
; 626  :         auto&& _Alproxy = _GET_PROXY_ALLOCATOR(_Alty, _Getal());

	mov	ecx, DWORD PTR _this$[ebp]
	call	?_Getal@?$vector@NV?$allocator@N@std@@@std@@AAEAAV?$allocator@N@2@XZ ; std::vector<double,std::allocator<double> >::_Getal
	push	eax
	lea	ecx, DWORD PTR _$S19$[ebp]
	call	??$?0N@?$allocator@U_Container_proxy@std@@@std@@QAE@ABV?$allocator@N@1@@Z ; std::allocator<std::_Container_proxy>::allocator<std::_Container_proxy><double>
	lea	eax, DWORD PTR _$S19$[ebp]
	mov	DWORD PTR __Alproxy$[ebp], eax

; 627  :         _Delete_plain_internal(_Alproxy, _STD exchange(_Mypair._Myval2._Myproxy, nullptr));

	mov	DWORD PTR $T2[ebp], 0
	lea	ecx, DWORD PTR $T2[ebp]
	push	ecx
	mov	edx, DWORD PTR _this$[ebp]
	push	edx
	call	??$exchange@PAU_Container_proxy@std@@$$T@std@@YAPAU_Container_proxy@0@AAPAU10@$$QA$$T@Z ; std::exchange<std::_Container_proxy *,std::nullptr_t>
	add	esp, 8
	push	eax
	mov	eax, DWORD PTR __Alproxy$[ebp]
	push	eax
	call	??$_Delete_plain_internal@V?$allocator@U_Container_proxy@std@@@std@@@std@@YAXAAV?$allocator@U_Container_proxy@std@@@0@QAU_Container_proxy@0@@Z ; std::_Delete_plain_internal<std::allocator<std::_Container_proxy> >
	add	esp, 8

; 628  : #endif // _ITERATOR_DEBUG_LEVEL != 0
; 629  :     }

	push	edx
	mov	ecx, ebp
	push	eax
	lea	edx, DWORD PTR $LN6@vector
	call	@_RTC_CheckStackVars@8
	pop	eax
	pop	edx
	mov	ecx, DWORD PTR __$EHRec$[ebp]
	mov	DWORD PTR fs:0, ecx
	pop	ecx
	add	esp, 36					; 00000024H
	cmp	ebp, esp
	call	__RTC_CheckEsp
	mov	esp, ebp
	pop	ebp
	ret	0
$LN6@vector:
	DD	1
	DD	$LN5@vector
$LN5@vector:
	DD	-25					; ffffffe7H
	DD	1
	DD	$LN3@vector
$LN3@vector:
	DB	36					; 00000024H
	DB	83					; 00000053H
	DB	49					; 00000031H
	DB	57					; 00000039H
	DB	0
_TEXT	ENDS
;	COMDAT text$x
text$x	SEGMENT
__ehhandler$??1?$vector@NV?$allocator@N@std@@@std@@QAE@XZ:
	mov	edx, DWORD PTR [esp+8]
	lea	eax, DWORD PTR [edx+12]
	mov	ecx, DWORD PTR [edx-28]
	xor	ecx, eax
	call	@__security_check_cookie@4
	mov	eax, OFFSET __ehfuncinfo$??1?$vector@NV?$allocator@N@std@@@std@@QAE@XZ
	jmp	___CxxFrameHandler3
text$x	ENDS
??1?$vector@NV?$allocator@N@std@@@std@@QAE@XZ ENDP	; std::vector<double,std::allocator<double> >::~vector<double,std::allocator<double> >
; Function compile flags: /Odtp /RTCsu
; File C:\Program Files (x86)\Microsoft Visual Studio\2019\Community\VC\Tools\MSVC\14.23.28105\include\vector
;	COMDAT ??0?$vector@NV?$allocator@N@std@@@std@@QAE@$$QAV01@@Z
_TEXT	SEGMENT
$T2 = -19						; size = 1
$T3 = -18						; size = 1
$T4 = -17						; size = 1
_this$ = -16						; size = 4
__$EHRec$ = -12						; size = 12
__Right$ = 8						; size = 4
??0?$vector@NV?$allocator@N@std@@@std@@QAE@$$QAV01@@Z PROC ; std::vector<double,std::allocator<double> >::vector<double,std::allocator<double> >, COMDAT
; _this$ = ecx

; 531  :     vector(vector&& _Right) noexcept

	push	ebp
	mov	ebp, esp
	push	-1
	push	__ehhandler$??0?$vector@NV?$allocator@N@std@@@std@@QAE@$$QAV01@@Z
	mov	eax, DWORD PTR fs:0
	push	eax
	sub	esp, 8
	mov	DWORD PTR [ebp-20], -858993460		; ccccccccH
	mov	DWORD PTR [ebp-16], -858993460		; ccccccccH
	mov	eax, DWORD PTR ___security_cookie
	xor	eax, ebp
	push	eax
	lea	eax, DWORD PTR __$EHRec$[ebp]
	mov	DWORD PTR fs:0, eax
	mov	DWORD PTR _this$[ebp], ecx

; 532  :         : _Mypair(_One_then_variadic_args_t(), _STD move(_Right._Getal())) { // construct by moving _Right

	mov	ecx, DWORD PTR __Right$[ebp]
	call	?_Getal@?$vector@NV?$allocator@N@std@@@std@@AAEAAV?$allocator@N@2@XZ ; std::vector<double,std::allocator<double> >::_Getal
	push	eax
	call	??$move@AAV?$allocator@N@std@@@std@@YA$$QAV?$allocator@N@0@AAV10@@Z ; std::move<std::allocator<double> &>
	add	esp, 4
	push	eax
	movzx	eax, BYTE PTR $T4[ebp]
	push	eax
	mov	ecx, DWORD PTR _this$[ebp]
	call	??$?0V?$allocator@N@std@@$$V@?$_Compressed_pair@V?$allocator@N@std@@V?$_Vector_val@U?$_Simple_types@N@std@@@2@$00@std@@QAE@U_One_then_variadic_args_t@1@$$QAV?$allocator@N@1@@Z ; std::_Compressed_pair<std::allocator<double>,std::_Vector_val<std::_Simple_types<double> >,1>::_Compressed_pair<std::allocator<double>,std::_Vector_val<std::_Simple_types<double> >,1><std::allocator<double> >

; 533  :         _Mypair._Myval2._Alloc_proxy(_GET_PROXY_ALLOCATOR(_Alty, _Getal()));

	mov	ecx, DWORD PTR _this$[ebp]
	call	?_Getal@?$vector@NV?$allocator@N@std@@@std@@AAEAAV?$allocator@N@2@XZ ; std::vector<double,std::allocator<double> >::_Getal
	push	eax
	lea	ecx, DWORD PTR $T3[ebp]
	call	??$?0N@?$allocator@U_Container_proxy@std@@@std@@QAE@ABV?$allocator@N@1@@Z ; std::allocator<std::_Container_proxy>::allocator<std::_Container_proxy><double>
	push	eax
	mov	ecx, DWORD PTR _this$[ebp]
	call	??$_Alloc_proxy@V?$allocator@U_Container_proxy@std@@@std@@@_Container_base12@std@@QAEX$$QAV?$allocator@U_Container_proxy@std@@@1@@Z ; std::_Container_base12::_Alloc_proxy<std::allocator<std::_Container_proxy> >

; 534  :         _Move_construct(_Right, true_type{});

	xor	ecx, ecx
	mov	BYTE PTR $T2[ebp], cl
	movzx	edx, BYTE PTR $T2[ebp]
	push	edx
	mov	eax, DWORD PTR __Right$[ebp]
	push	eax
	mov	ecx, DWORD PTR _this$[ebp]
	call	?_Move_construct@?$vector@NV?$allocator@N@std@@@std@@AAEXAAV12@U?$integral_constant@_N$00@2@@Z ; std::vector<double,std::allocator<double> >::_Move_construct

; 535  :     }

	mov	eax, DWORD PTR _this$[ebp]
	mov	ecx, DWORD PTR __$EHRec$[ebp]
	mov	DWORD PTR fs:0, ecx
	pop	ecx
	add	esp, 20					; 00000014H
	cmp	ebp, esp
	call	__RTC_CheckEsp
	mov	esp, ebp
	pop	ebp
	ret	4
_TEXT	ENDS
;	COMDAT text$x
text$x	SEGMENT
__ehhandler$??0?$vector@NV?$allocator@N@std@@@std@@QAE@$$QAV01@@Z:
	mov	edx, DWORD PTR [esp+8]
	lea	eax, DWORD PTR [edx+12]
	mov	ecx, DWORD PTR [edx-12]
	xor	ecx, eax
	call	@__security_check_cookie@4
	mov	eax, OFFSET __ehfuncinfo$??0?$vector@NV?$allocator@N@std@@@std@@QAE@$$QAV01@@Z
	jmp	___CxxFrameHandler3
text$x	ENDS
??0?$vector@NV?$allocator@N@std@@@std@@QAE@$$QAV01@@Z ENDP ; std::vector<double,std::allocator<double> >::vector<double,std::allocator<double> >
; Function compile flags: /Odtp /RTCsu
; File C:\Program Files (x86)\Microsoft Visual Studio\2019\Community\VC\Tools\MSVC\14.23.28105\include\vector
;	COMDAT ?_Move_construct@?$vector@NV?$allocator@N@std@@@std@@AAEXAAV12@U?$integral_constant@_N$00@2@@Z
_TEXT	SEGMENT
_this$ = -4						; size = 4
__Right$ = 8						; size = 4
___formal$ = 12						; size = 1
?_Move_construct@?$vector@NV?$allocator@N@std@@@std@@AAEXAAV12@U?$integral_constant@_N$00@2@@Z PROC ; std::vector<double,std::allocator<double> >::_Move_construct, COMDAT
; _this$ = ecx

; 505  :     void _Move_construct(vector& _Right, true_type) noexcept { // move from _Right, stealing its contents

	push	ebp
	mov	ebp, esp
	push	ecx
	mov	DWORD PTR [ebp-4], -858993460		; ccccccccH
	mov	DWORD PTR _this$[ebp], ecx

; 506  :         _Mypair._Myval2._Take_contents(_Right._Mypair._Myval2);

	mov	eax, DWORD PTR __Right$[ebp]
	push	eax
	mov	ecx, DWORD PTR _this$[ebp]
	call	?_Take_contents@?$_Vector_val@U?$_Simple_types@N@std@@@std@@QAEXAAV12@@Z ; std::_Vector_val<std::_Simple_types<double> >::_Take_contents

; 507  :     }

	add	esp, 4
	cmp	ebp, esp
	call	__RTC_CheckEsp
	mov	esp, ebp
	pop	ebp
	ret	8
?_Move_construct@?$vector@NV?$allocator@N@std@@@std@@AAEXAAV12@U?$integral_constant@_N$00@2@@Z ENDP ; std::vector<double,std::allocator<double> >::_Move_construct
_TEXT	ENDS
; Function compile flags: /Odtp /RTCsu
; File C:\Program Files (x86)\Microsoft Visual Studio\2019\Community\VC\Tools\MSVC\14.23.28105\include\vector
;	COMDAT ??0?$vector@NV?$allocator@N@std@@@std@@QAE@ABV01@@Z
_TEXT	SEGMENT
$T2 = -78						; size = 1
$T3 = -77						; size = 1
__Guard$4 = -72						; size = 4
__Proxy$ = -60						; size = 8
__Rightlast$ = -48					; size = 4
__Rightfirst$ = -44					; size = 4
__Right_data$ = -40					; size = 4
__My_data$ = -36					; size = 4
_$S16$ = -25						; size = 1
__Alproxy$ = -20					; size = 4
_this$ = -16						; size = 4
__$EHRec$ = -12						; size = 12
__Right$ = 8						; size = 4
??0?$vector@NV?$allocator@N@std@@@std@@QAE@ABV01@@Z PROC ; std::vector<double,std::allocator<double> >::vector<double,std::allocator<double> >, COMDAT
; _this$ = ecx

; 468  :             _Alty_traits::select_on_container_copy_construction(_Right._Getal())) { // construct by copying _Right

	push	ebp
	mov	ebp, esp
	push	-1
	push	__ehhandler$??0?$vector@NV?$allocator@N@std@@@std@@QAE@ABV01@@Z
	mov	eax, DWORD PTR fs:0
	push	eax
	sub	esp, 68					; 00000044H
	push	edi
	push	ecx
	lea	edi, DWORD PTR [ebp-80]
	mov	ecx, 17					; 00000011H
	mov	eax, -858993460				; ccccccccH
	rep stosd
	pop	ecx
	mov	eax, DWORD PTR ___security_cookie
	xor	eax, ebp
	push	eax
	lea	eax, DWORD PTR __$EHRec$[ebp]
	mov	DWORD PTR fs:0, eax
	mov	DWORD PTR _this$[ebp], ecx

; 467  :         : _Mypair(_One_then_variadic_args_t(),

	mov	ecx, DWORD PTR __Right$[ebp]
	call	?_Getal@?$vector@NV?$allocator@N@std@@@std@@ABEABV?$allocator@N@2@XZ ; std::vector<double,std::allocator<double> >::_Getal
	push	eax
	lea	eax, DWORD PTR $T3[ebp]
	push	eax
	call	?select_on_container_copy_construction@?$_Default_allocator_traits@V?$allocator@N@std@@@std@@SA?AV?$allocator@N@2@ABV32@@Z ; std::_Default_allocator_traits<std::allocator<double> >::select_on_container_copy_construction
	add	esp, 8
	push	eax
	movzx	ecx, BYTE PTR $T2[ebp]
	push	ecx
	mov	ecx, DWORD PTR _this$[ebp]
	call	??$?0V?$allocator@N@std@@$$V@?$_Compressed_pair@V?$allocator@N@std@@V?$_Vector_val@U?$_Simple_types@N@std@@@2@$00@std@@QAE@U_One_then_variadic_args_t@1@$$QAV?$allocator@N@1@@Z ; std::_Compressed_pair<std::allocator<double>,std::_Vector_val<std::_Simple_types<double> >,1>::_Compressed_pair<std::allocator<double>,std::_Vector_val<std::_Simple_types<double> >,1><std::allocator<double> >

; 469  :         auto&& _Alproxy           = _GET_PROXY_ALLOCATOR(_Alty, _Getal());

	mov	ecx, DWORD PTR _this$[ebp]
	call	?_Getal@?$vector@NV?$allocator@N@std@@@std@@AAEAAV?$allocator@N@2@XZ ; std::vector<double,std::allocator<double> >::_Getal
	push	eax
	lea	ecx, DWORD PTR _$S16$[ebp]
	call	??$?0N@?$allocator@U_Container_proxy@std@@@std@@QAE@ABV?$allocator@N@1@@Z ; std::allocator<std::_Container_proxy>::allocator<std::_Container_proxy><double>
	lea	edx, DWORD PTR _$S16$[ebp]
	mov	DWORD PTR __Alproxy$[ebp], edx

; 470  :         auto& _My_data            = _Mypair._Myval2;

	mov	eax, DWORD PTR _this$[ebp]
	mov	DWORD PTR __My_data$[ebp], eax

; 471  :         const auto& _Right_data   = _Right._Mypair._Myval2;

	mov	ecx, DWORD PTR __Right$[ebp]
	mov	DWORD PTR __Right_data$[ebp], ecx

; 472  :         const pointer _Rightfirst = _Right_data._Myfirst;

	mov	edx, DWORD PTR __Right_data$[ebp]
	mov	eax, DWORD PTR [edx+4]
	mov	DWORD PTR __Rightfirst$[ebp], eax

; 473  :         const pointer _Rightlast  = _Right_data._Mylast;

	mov	ecx, DWORD PTR __Right_data$[ebp]
	mov	edx, DWORD PTR [ecx+8]
	mov	DWORD PTR __Rightlast$[ebp], edx

; 474  :         _Container_proxy_ptr<_Alty> _Proxy(_Alproxy, _My_data);

	mov	eax, DWORD PTR __My_data$[ebp]
	push	eax
	mov	ecx, DWORD PTR __Alproxy$[ebp]
	push	ecx
	lea	ecx, DWORD PTR __Proxy$[ebp]
	call	??0?$_Container_proxy_ptr12@V?$allocator@U_Container_proxy@std@@@std@@@std@@QAE@AAV?$allocator@U_Container_proxy@std@@@1@AAU_Container_base12@1@@Z ; std::_Container_proxy_ptr12<std::allocator<std::_Container_proxy> >::_Container_proxy_ptr12<std::allocator<std::_Container_proxy> >
	mov	DWORD PTR __$EHRec$[ebp+8], 0

; 475  :         if (_Rightfirst != _Rightlast) {

	mov	edx, DWORD PTR __Rightfirst$[ebp]
	cmp	edx, DWORD PTR __Rightlast$[ebp]
	je	SHORT $LN2@vector

; 476  :             _Buy_raw(static_cast<size_type>(_Rightlast - _Rightfirst));

	mov	eax, DWORD PTR __Rightlast$[ebp]
	sub	eax, DWORD PTR __Rightfirst$[ebp]
	sar	eax, 3
	push	eax
	mov	ecx, DWORD PTR _this$[ebp]
	call	?_Buy_raw@?$vector@NV?$allocator@N@std@@@std@@AAEXI@Z ; std::vector<double,std::allocator<double> >::_Buy_raw

; 477  :             _Tidy_guard<vector> _Guard{this};

	mov	ecx, DWORD PTR _this$[ebp]
	mov	DWORD PTR __Guard$4[ebp], ecx
	mov	BYTE PTR __$EHRec$[ebp+8], 1

; 478  :             _My_data._Mylast = _Ucopy(_Rightfirst, _Rightlast, _My_data._Myfirst);

	mov	edx, DWORD PTR __My_data$[ebp]
	mov	eax, DWORD PTR [edx+4]
	push	eax
	mov	ecx, DWORD PTR __Rightlast$[ebp]
	push	ecx
	mov	edx, DWORD PTR __Rightfirst$[ebp]
	push	edx
	mov	ecx, DWORD PTR _this$[ebp]
	call	??$_Ucopy@PAN@?$vector@NV?$allocator@N@std@@@std@@AAEPANPAN00@Z ; std::vector<double,std::allocator<double> >::_Ucopy<double *>
	mov	ecx, DWORD PTR __My_data$[ebp]
	mov	DWORD PTR [ecx+8], eax

; 479  :             _Guard._Target   = nullptr;

	mov	DWORD PTR __Guard$4[ebp], 0

; 480  :         }

	mov	BYTE PTR __$EHRec$[ebp+8], 0
	lea	ecx, DWORD PTR __Guard$4[ebp]
	call	??1?$_Tidy_guard@V?$vector@NV?$allocator@N@std@@@std@@@std@@QAE@XZ ; std::_Tidy_guard<std::vector<double,std::allocator<double> > >::~_Tidy_guard<std::vector<double,std::allocator<double> > >
$LN2@vector:

; 481  : 
; 482  :         _Proxy._Release();

	lea	ecx, DWORD PTR __Proxy$[ebp]
	call	?_Release@_Basic_container_proxy_ptr12@std@@QAEXXZ ; std::_Basic_container_proxy_ptr12::_Release

; 483  :     }

	mov	DWORD PTR __$EHRec$[ebp+8], -1
	lea	ecx, DWORD PTR __Proxy$[ebp]
	call	??1?$_Container_proxy_ptr12@V?$allocator@U_Container_proxy@std@@@std@@@std@@QAE@XZ ; std::_Container_proxy_ptr12<std::allocator<std::_Container_proxy> >::~_Container_proxy_ptr12<std::allocator<std::_Container_proxy> >
	mov	eax, DWORD PTR _this$[ebp]
	push	edx
	mov	ecx, ebp
	push	eax
	lea	edx, DWORD PTR $LN11@vector
	call	@_RTC_CheckStackVars@8
	pop	eax
	pop	edx
	mov	ecx, DWORD PTR __$EHRec$[ebp]
	mov	DWORD PTR fs:0, ecx
	pop	ecx
	pop	edi
	add	esp, 80					; 00000050H
	cmp	ebp, esp
	call	__RTC_CheckEsp
	mov	esp, ebp
	pop	ebp
	ret	4
$LN11@vector:
	DD	3
	DD	$LN10@vector
$LN10@vector:
	DD	-25					; ffffffe7H
	DD	1
	DD	$LN6@vector
	DD	-60					; ffffffc4H
	DD	8
	DD	$LN7@vector
	DD	-72					; ffffffb8H
	DD	4
	DD	$LN8@vector
$LN8@vector:
	DB	95					; 0000005fH
	DB	71					; 00000047H
	DB	117					; 00000075H
	DB	97					; 00000061H
	DB	114					; 00000072H
	DB	100					; 00000064H
	DB	0
$LN7@vector:
	DB	95					; 0000005fH
	DB	80					; 00000050H
	DB	114					; 00000072H
	DB	111					; 0000006fH
	DB	120					; 00000078H
	DB	121					; 00000079H
	DB	0
$LN6@vector:
	DB	36					; 00000024H
	DB	83					; 00000053H
	DB	49					; 00000031H
	DB	54					; 00000036H
	DB	0
_TEXT	ENDS
;	COMDAT text$x
text$x	SEGMENT
__unwindfunclet$??0?$vector@NV?$allocator@N@std@@@std@@QAE@ABV01@@Z$0:
	lea	ecx, DWORD PTR __Proxy$[ebp]
	jmp	??1?$_Container_proxy_ptr12@V?$allocator@U_Container_proxy@std@@@std@@@std@@QAE@XZ ; std::_Container_proxy_ptr12<std::allocator<std::_Container_proxy> >::~_Container_proxy_ptr12<std::allocator<std::_Container_proxy> >
__unwindfunclet$??0?$vector@NV?$allocator@N@std@@@std@@QAE@ABV01@@Z$1:
	lea	ecx, DWORD PTR __Guard$4[ebp]
	jmp	??1?$_Tidy_guard@V?$vector@NV?$allocator@N@std@@@std@@@std@@QAE@XZ ; std::_Tidy_guard<std::vector<double,std::allocator<double> > >::~_Tidy_guard<std::vector<double,std::allocator<double> > >
__ehhandler$??0?$vector@NV?$allocator@N@std@@@std@@QAE@ABV01@@Z:
	mov	edx, DWORD PTR [esp+8]
	lea	eax, DWORD PTR [edx+12]
	mov	ecx, DWORD PTR [edx-76]
	xor	ecx, eax
	call	@__security_check_cookie@4
	mov	eax, OFFSET __ehfuncinfo$??0?$vector@NV?$allocator@N@std@@@std@@QAE@ABV01@@Z
	jmp	___CxxFrameHandler3
text$x	ENDS
??0?$vector@NV?$allocator@N@std@@@std@@QAE@ABV01@@Z ENDP ; std::vector<double,std::allocator<double> >::vector<double,std::allocator<double> >
; Function compile flags: /Odtp /RTCsu
; File C:\Program Files (x86)\Microsoft Visual Studio\2019\Community\VC\Tools\MSVC\14.23.28105\include\xmemory
;	COMDAT ?select_on_container_copy_construction@?$_Default_allocator_traits@V?$allocator@N@std@@@std@@SA?AV?$allocator@N@2@ABV32@@Z
_TEXT	SEGMENT
___$ReturnUdt$ = 8					; size = 4
__Al$ = 12						; size = 4
?select_on_container_copy_construction@?$_Default_allocator_traits@V?$allocator@N@std@@@std@@SA?AV?$allocator@N@2@ABV32@@Z PROC ; std::_Default_allocator_traits<std::allocator<double> >::select_on_container_copy_construction, COMDAT

; 770  :     _NODISCARD static _Alloc select_on_container_copy_construction(const _Alloc& _Al) {

	push	ebp
	mov	ebp, esp

; 771  :         return _Al;

	mov	eax, DWORD PTR ___$ReturnUdt$[ebp]

; 772  :     }

	pop	ebp
	ret	0
?select_on_container_copy_construction@?$_Default_allocator_traits@V?$allocator@N@std@@@std@@SA?AV?$allocator@N@2@ABV32@@Z ENDP ; std::_Default_allocator_traits<std::allocator<double> >::select_on_container_copy_construction
_TEXT	ENDS
; Function compile flags: /Odtp /RTCsu
; File C:\Program Files (x86)\Microsoft Visual Studio\2019\Community\VC\Tools\MSVC\14.23.28105\include\xmemory
;	COMDAT ?allocate@?$allocator@N@std@@QAEPANI@Z
_TEXT	SEGMENT
_this$ = -4						; size = 4
__Count$ = 8						; size = 4
?allocate@?$allocator@N@std@@QAEPANI@Z PROC		; std::allocator<double>::allocate, COMDAT
; _this$ = ecx

; 870  :     _NODISCARD _DECLSPEC_ALLOCATOR _Ty* allocate(_CRT_GUARDOVERFLOW const size_t _Count) {

	push	ebp
	mov	ebp, esp
	push	ecx
	mov	DWORD PTR [ebp-4], -858993460		; ccccccccH
	mov	DWORD PTR _this$[ebp], ecx

; 871  :         return static_cast<_Ty*>(_Allocate<_New_alignof<_Ty>>(_Get_size_of_n<sizeof(_Ty)>(_Count)));

	mov	eax, DWORD PTR __Count$[ebp]
	push	eax
	call	??$_Get_size_of_n@$07@std@@YAII@Z	; std::_Get_size_of_n<8>
	add	esp, 4
	push	eax
	call	??$_Allocate@$07U_Default_allocate_traits@std@@$0A@@std@@YAPAXI@Z ; std::_Allocate<8,std::_Default_allocate_traits,0>
	add	esp, 4

; 872  :     }

	add	esp, 4
	cmp	ebp, esp
	call	__RTC_CheckEsp
	mov	esp, ebp
	pop	ebp
	ret	4
?allocate@?$allocator@N@std@@QAEPANI@Z ENDP		; std::allocator<double>::allocate
_TEXT	ENDS
; Function compile flags: /Odtp /RTCsu
; File C:\Program Files (x86)\Microsoft Visual Studio\2019\Community\VC\Tools\MSVC\14.23.28105\include\xmemory
;	COMDAT ?deallocate@?$allocator@N@std@@QAEXQANI@Z
_TEXT	SEGMENT
_this$ = -4						; size = 4
__Ptr$ = 8						; size = 4
__Count$ = 12						; size = 4
?deallocate@?$allocator@N@std@@QAEXQANI@Z PROC		; std::allocator<double>::deallocate, COMDAT
; _this$ = ecx

; 865  :     void deallocate(_Ty* const _Ptr, const size_t _Count) {

	push	ebp
	mov	ebp, esp
	push	ecx
	mov	DWORD PTR [ebp-4], -858993460		; ccccccccH
	mov	DWORD PTR _this$[ebp], ecx

; 866  :         // no overflow check on the following multiply; we assume _Allocate did that check
; 867  :         _Deallocate<_New_alignof<_Ty>>(_Ptr, sizeof(_Ty) * _Count);

	mov	eax, DWORD PTR __Count$[ebp]
	shl	eax, 3
	push	eax
	mov	ecx, DWORD PTR __Ptr$[ebp]
	push	ecx
	call	??$_Deallocate@$07$0A@@std@@YAXPAXI@Z	; std::_Deallocate<8,0>
	add	esp, 8

; 868  :     }

	add	esp, 4
	cmp	ebp, esp
	call	__RTC_CheckEsp
	mov	esp, ebp
	pop	ebp
	ret	8
?deallocate@?$allocator@N@std@@QAEXQANI@Z ENDP		; std::allocator<double>::deallocate
_TEXT	ENDS
; Function compile flags: /Odtp /RTCsu
; File D:\Réseau neuronnes - Projet Raven\Réseau\solution_lab_apprentissage_a_partir_bot\solution_lab_apprentissage_a_partir_bot\Common\misc\utils.h
;	COMDAT ??__EMinFloat@@YAXXZ
text$di	SEGMENT
??__EMinFloat@@YAXXZ PROC				; `dynamic initializer for 'MinFloat'', COMDAT

; 27   : const float   MinFloat  = (std::numeric_limits<float>::min)();

	push	ebp
	mov	ebp, esp
	call	?min@?$numeric_limits@M@std@@SAMXZ	; std::numeric_limits<float>::min
	fstp	DWORD PTR ?MinFloat@@3MB
	cmp	ebp, esp
	call	__RTC_CheckEsp
	pop	ebp
	ret	0
??__EMinFloat@@YAXXZ ENDP				; `dynamic initializer for 'MinFloat''
text$di	ENDS
; Function compile flags: /Odtp /RTCsu
; File D:\Réseau neuronnes - Projet Raven\Réseau\solution_lab_apprentissage_a_partir_bot\solution_lab_apprentissage_a_partir_bot\Common\misc\utils.h
;	COMDAT ??__EMaxFloat@@YAXXZ
text$di	SEGMENT
??__EMaxFloat@@YAXXZ PROC				; `dynamic initializer for 'MaxFloat'', COMDAT

; 26   : const float   MaxFloat  = (std::numeric_limits<float>::max)();

	push	ebp
	mov	ebp, esp
	call	?max@?$numeric_limits@M@std@@SAMXZ	; std::numeric_limits<float>::max
	fstp	DWORD PTR ?MaxFloat@@3MB
	cmp	ebp, esp
	call	__RTC_CheckEsp
	pop	ebp
	ret	0
??__EMaxFloat@@YAXXZ ENDP				; `dynamic initializer for 'MaxFloat''
text$di	ENDS
; Function compile flags: /Odtp /RTCsu
; File D:\Réseau neuronnes - Projet Raven\Réseau\solution_lab_apprentissage_a_partir_bot\solution_lab_apprentissage_a_partir_bot\Common\misc\utils.h
;	COMDAT ??__EMinDouble@@YAXXZ
text$di	SEGMENT
??__EMinDouble@@YAXXZ PROC				; `dynamic initializer for 'MinDouble'', COMDAT

; 25   : const double  MinDouble = (std::numeric_limits<double>::min)();

	push	ebp
	mov	ebp, esp
	call	?min@?$numeric_limits@N@std@@SANXZ	; std::numeric_limits<double>::min
	fstp	QWORD PTR ?MinDouble@@3NB
	cmp	ebp, esp
	call	__RTC_CheckEsp
	pop	ebp
	ret	0
??__EMinDouble@@YAXXZ ENDP				; `dynamic initializer for 'MinDouble''
text$di	ENDS
; Function compile flags: /Odtp /RTCsu
; File D:\Réseau neuronnes - Projet Raven\Réseau\solution_lab_apprentissage_a_partir_bot\solution_lab_apprentissage_a_partir_bot\Common\misc\utils.h
;	COMDAT ??__EMaxDouble@@YAXXZ
text$di	SEGMENT
??__EMaxDouble@@YAXXZ PROC				; `dynamic initializer for 'MaxDouble'', COMDAT

; 24   : const double  MaxDouble = (std::numeric_limits<double>::max)();

	push	ebp
	mov	ebp, esp
	call	?max@?$numeric_limits@N@std@@SANXZ	; std::numeric_limits<double>::max
	fstp	QWORD PTR ?MaxDouble@@3NB
	cmp	ebp, esp
	call	__RTC_CheckEsp
	pop	ebp
	ret	0
??__EMaxDouble@@YAXXZ ENDP				; `dynamic initializer for 'MaxDouble''
text$di	ENDS
; Function compile flags: /Odtp /RTCsu
; File D:\Réseau neuronnes - Projet Raven\Réseau\solution_lab_apprentissage_a_partir_bot\solution_lab_apprentissage_a_partir_bot\Common\misc\utils.h
;	COMDAT ??__EMaxInt@@YAXXZ
text$di	SEGMENT
??__EMaxInt@@YAXXZ PROC					; `dynamic initializer for 'MaxInt'', COMDAT

; 23   : const int     MaxInt    = (std::numeric_limits<int>::max)();

	push	ebp
	mov	ebp, esp
	call	?max@?$numeric_limits@H@std@@SAHXZ	; std::numeric_limits<int>::max
	mov	DWORD PTR ?MaxInt@@3HB, eax
	cmp	ebp, esp
	call	__RTC_CheckEsp
	pop	ebp
	ret	0
??__EMaxInt@@YAXXZ ENDP					; `dynamic initializer for 'MaxInt''
text$di	ENDS
; Function compile flags: /Odtp /RTCsu
; File C:\Program Files (x86)\Microsoft Visual Studio\2019\Community\VC\Tools\MSVC\14.23.28105\include\xmemory
;	COMDAT ?_Release@_Basic_container_proxy_ptr12@std@@QAEXXZ
_TEXT	SEGMENT
_this$ = -4						; size = 4
?_Release@_Basic_container_proxy_ptr12@std@@QAEXXZ PROC	; std::_Basic_container_proxy_ptr12::_Release, COMDAT
; _this$ = ecx

; 1348 :     void _Release() noexcept { // disengage this _Basic_container_proxy_ptr12

	push	ebp
	mov	ebp, esp
	push	ecx
	mov	DWORD PTR [ebp-4], -858993460		; ccccccccH
	mov	DWORD PTR _this$[ebp], ecx

; 1349 :         _Ptr = nullptr;

	mov	eax, DWORD PTR _this$[ebp]
	mov	DWORD PTR [eax], 0

; 1350 :     }

	mov	esp, ebp
	pop	ebp
	ret	0
?_Release@_Basic_container_proxy_ptr12@std@@QAEXXZ ENDP	; std::_Basic_container_proxy_ptr12::_Release
_TEXT	ENDS
; Function compile flags: /Odtp /RTCsu
; File C:\Program Files (x86)\Microsoft Visual Studio\2019\Community\VC\Tools\MSVC\14.23.28105\include\xmemory
;	COMDAT ?_Swap_proxy_and_iterators@_Container_base12@std@@QAEXAAU12@@Z
_TEXT	SEGMENT
__Temp$ = -32						; size = 4
__Lock$ = -24						; size = 4
_this$ = -16						; size = 4
__$EHRec$ = -12						; size = 12
__Right$ = 8						; size = 4
?_Swap_proxy_and_iterators@_Container_base12@std@@QAEXAAU12@@Z PROC ; std::_Container_base12::_Swap_proxy_and_iterators, COMDAT
; _this$ = ecx

; 1302 : inline void _Container_base12::_Swap_proxy_and_iterators(_Container_base12& _Right) noexcept {

	push	ebp
	mov	ebp, esp
	push	-1
	push	__ehhandler$?_Swap_proxy_and_iterators@_Container_base12@std@@QAEXAAU12@@Z
	mov	eax, DWORD PTR fs:0
	push	eax
	sub	esp, 20					; 00000014H
	mov	eax, -858993460				; ccccccccH
	mov	DWORD PTR [ebp-32], eax
	mov	DWORD PTR [ebp-28], eax
	mov	DWORD PTR [ebp-24], eax
	mov	DWORD PTR [ebp-20], eax
	mov	DWORD PTR [ebp-16], eax
	mov	eax, DWORD PTR ___security_cookie
	xor	eax, ebp
	push	eax
	lea	eax, DWORD PTR __$EHRec$[ebp]
	mov	DWORD PTR fs:0, eax
	mov	DWORD PTR _this$[ebp], ecx

; 1303 : #if _ITERATOR_DEBUG_LEVEL == 2
; 1304 :     _Lockit _Lock(_LOCK_DEBUG);

	push	3
	lea	ecx, DWORD PTR __Lock$[ebp]
	call	??0_Lockit@std@@QAE@H@Z			; std::_Lockit::_Lockit

; 1305 : #endif // _ITERATOR_DEBUG_LEVEL == 2
; 1306 : 
; 1307 :     _Container_proxy* _Temp = _Myproxy;

	mov	eax, DWORD PTR _this$[ebp]
	mov	ecx, DWORD PTR [eax]
	mov	DWORD PTR __Temp$[ebp], ecx

; 1308 :     _Myproxy                = _Right._Myproxy;

	mov	edx, DWORD PTR _this$[ebp]
	mov	eax, DWORD PTR __Right$[ebp]
	mov	ecx, DWORD PTR [eax]
	mov	DWORD PTR [edx], ecx

; 1309 :     _Right._Myproxy         = _Temp;

	mov	edx, DWORD PTR __Right$[ebp]
	mov	eax, DWORD PTR __Temp$[ebp]
	mov	DWORD PTR [edx], eax

; 1310 : 
; 1311 :     if (_Myproxy) {

	mov	ecx, DWORD PTR _this$[ebp]
	cmp	DWORD PTR [ecx], 0
	je	SHORT $LN2@Swap_proxy

; 1312 :         _Myproxy->_Mycont = this;

	mov	edx, DWORD PTR _this$[ebp]
	mov	eax, DWORD PTR [edx]
	mov	ecx, DWORD PTR _this$[ebp]
	mov	DWORD PTR [eax], ecx
$LN2@Swap_proxy:

; 1313 :     }
; 1314 : 
; 1315 :     if (_Right._Myproxy) {

	mov	edx, DWORD PTR __Right$[ebp]
	cmp	DWORD PTR [edx], 0
	je	SHORT $LN3@Swap_proxy

; 1316 :         _Right._Myproxy->_Mycont = &_Right;

	mov	eax, DWORD PTR __Right$[ebp]
	mov	ecx, DWORD PTR [eax]
	mov	edx, DWORD PTR __Right$[ebp]
	mov	DWORD PTR [ecx], edx
$LN3@Swap_proxy:

; 1317 :     }
; 1318 : }

	lea	ecx, DWORD PTR __Lock$[ebp]
	call	??1_Lockit@std@@QAE@XZ			; std::_Lockit::~_Lockit
	push	edx
	mov	ecx, ebp
	push	eax
	lea	edx, DWORD PTR $LN8@Swap_proxy
	call	@_RTC_CheckStackVars@8
	pop	eax
	pop	edx
	mov	ecx, DWORD PTR __$EHRec$[ebp]
	mov	DWORD PTR fs:0, ecx
	pop	ecx
	add	esp, 32					; 00000020H
	cmp	ebp, esp
	call	__RTC_CheckEsp
	mov	esp, ebp
	pop	ebp
	ret	4
$LN8@Swap_proxy:
	DD	1
	DD	$LN7@Swap_proxy
$LN7@Swap_proxy:
	DD	-24					; ffffffe8H
	DD	4
	DD	$LN5@Swap_proxy
$LN5@Swap_proxy:
	DB	95					; 0000005fH
	DB	76					; 0000004cH
	DB	111					; 0000006fH
	DB	99					; 00000063H
	DB	107					; 0000006bH
	DB	0
_TEXT	ENDS
;	COMDAT text$x
text$x	SEGMENT
__ehhandler$?_Swap_proxy_and_iterators@_Container_base12@std@@QAEXAAU12@@Z:
	mov	edx, DWORD PTR [esp+8]
	lea	eax, DWORD PTR [edx+12]
	mov	ecx, DWORD PTR [edx-24]
	xor	ecx, eax
	call	@__security_check_cookie@4
	mov	eax, OFFSET __ehfuncinfo$?_Swap_proxy_and_iterators@_Container_base12@std@@QAEXAAU12@@Z
	jmp	___CxxFrameHandler3
text$x	ENDS
?_Swap_proxy_and_iterators@_Container_base12@std@@QAEXAAU12@@Z ENDP ; std::_Container_base12::_Swap_proxy_and_iterators
; Function compile flags: /Odtp /RTCsu
; File C:\Program Files (x86)\Microsoft Visual Studio\2019\Community\VC\Tools\MSVC\14.23.28105\include\xmemory
;	COMDAT ?_Orphan_all@_Container_base12@std@@QAEXXZ
_TEXT	SEGMENT
__Pnext$2 = -32						; size = 4
__Lock$3 = -24						; size = 4
_this$ = -16						; size = 4
__$EHRec$ = -12						; size = 12
?_Orphan_all@_Container_base12@std@@QAEXXZ PROC		; std::_Container_base12::_Orphan_all, COMDAT
; _this$ = ecx

; 1288 : inline void _Container_base12::_Orphan_all() noexcept {

	push	ebp
	mov	ebp, esp
	push	-1
	push	__ehhandler$?_Orphan_all@_Container_base12@std@@QAEXXZ
	mov	eax, DWORD PTR fs:0
	push	eax
	sub	esp, 20					; 00000014H
	mov	eax, -858993460				; ccccccccH
	mov	DWORD PTR [ebp-32], eax
	mov	DWORD PTR [ebp-28], eax
	mov	DWORD PTR [ebp-24], eax
	mov	DWORD PTR [ebp-20], eax
	mov	DWORD PTR [ebp-16], eax
	mov	eax, DWORD PTR ___security_cookie
	xor	eax, ebp
	push	eax
	lea	eax, DWORD PTR __$EHRec$[ebp]
	mov	DWORD PTR fs:0, eax
	mov	DWORD PTR _this$[ebp], ecx

; 1289 : #if _ITERATOR_DEBUG_LEVEL == 2
; 1290 :     if (_Myproxy) { // proxy allocated, drain it

	mov	eax, DWORD PTR _this$[ebp]
	cmp	DWORD PTR [eax], 0
	je	SHORT $LN6@Orphan_all

; 1291 :         _Lockit _Lock(_LOCK_DEBUG);

	push	3
	lea	ecx, DWORD PTR __Lock$3[ebp]
	call	??0_Lockit@std@@QAE@H@Z			; std::_Lockit::_Lockit

; 1292 : 
; 1293 :         for (auto _Pnext = &_Myproxy->_Myfirstiter; *_Pnext; *_Pnext = (*_Pnext)->_Mynextiter) {

	mov	ecx, DWORD PTR _this$[ebp]
	mov	edx, DWORD PTR [ecx]
	add	edx, 4
	mov	DWORD PTR __Pnext$2[ebp], edx
	jmp	SHORT $LN4@Orphan_all
$LN2@Orphan_all:
	mov	eax, DWORD PTR __Pnext$2[ebp]
	mov	ecx, DWORD PTR [eax]
	mov	edx, DWORD PTR __Pnext$2[ebp]
	mov	eax, DWORD PTR [ecx+4]
	mov	DWORD PTR [edx], eax
$LN4@Orphan_all:
	mov	ecx, DWORD PTR __Pnext$2[ebp]
	cmp	DWORD PTR [ecx], 0
	je	SHORT $LN3@Orphan_all

; 1294 :             (*_Pnext)->_Myproxy = nullptr;

	mov	edx, DWORD PTR __Pnext$2[ebp]
	mov	eax, DWORD PTR [edx]
	mov	DWORD PTR [eax], 0

; 1295 :         }

	jmp	SHORT $LN2@Orphan_all
$LN3@Orphan_all:

; 1296 : 
; 1297 :         _Myproxy->_Myfirstiter = nullptr;

	mov	ecx, DWORD PTR _this$[ebp]
	mov	edx, DWORD PTR [ecx]
	mov	DWORD PTR [edx+4], 0

; 1298 :     }

	lea	ecx, DWORD PTR __Lock$3[ebp]
	call	??1_Lockit@std@@QAE@XZ			; std::_Lockit::~_Lockit
$LN6@Orphan_all:

; 1299 : #endif // _ITERATOR_DEBUG_LEVEL == 2
; 1300 : }

	push	edx
	mov	ecx, ebp
	push	eax
	lea	edx, DWORD PTR $LN10@Orphan_all
	call	@_RTC_CheckStackVars@8
	pop	eax
	pop	edx
	mov	ecx, DWORD PTR __$EHRec$[ebp]
	mov	DWORD PTR fs:0, ecx
	pop	ecx
	add	esp, 32					; 00000020H
	cmp	ebp, esp
	call	__RTC_CheckEsp
	mov	esp, ebp
	pop	ebp
	ret	0
	npad	1
$LN10@Orphan_all:
	DD	1
	DD	$LN9@Orphan_all
$LN9@Orphan_all:
	DD	-24					; ffffffe8H
	DD	4
	DD	$LN7@Orphan_all
$LN7@Orphan_all:
	DB	95					; 0000005fH
	DB	76					; 0000004cH
	DB	111					; 0000006fH
	DB	99					; 00000063H
	DB	107					; 0000006bH
	DB	0
_TEXT	ENDS
;	COMDAT text$x
text$x	SEGMENT
__ehhandler$?_Orphan_all@_Container_base12@std@@QAEXXZ:
	mov	edx, DWORD PTR [esp+8]
	lea	eax, DWORD PTR [edx+12]
	mov	ecx, DWORD PTR [edx-24]
	xor	ecx, eax
	call	@__security_check_cookie@4
	mov	eax, OFFSET __ehfuncinfo$?_Orphan_all@_Container_base12@std@@QAEXXZ
	jmp	___CxxFrameHandler3
text$x	ENDS
?_Orphan_all@_Container_base12@std@@QAEXXZ ENDP		; std::_Container_base12::_Orphan_all
; Function compile flags: /Odtp /RTCsu
; File C:\Program Files (x86)\Microsoft Visual Studio\2019\Community\VC\Tools\MSVC\14.23.28105\include\xmemory
;	COMDAT ??0_Container_base12@std@@QAE@XZ
_TEXT	SEGMENT
_this$ = -4						; size = 4
??0_Container_base12@std@@QAE@XZ PROC			; std::_Container_base12::_Container_base12, COMDAT
; _this$ = ecx

; 1175 :     _Container_base12() : _Myproxy(nullptr) {} // construct childless container

	push	ebp
	mov	ebp, esp
	push	ecx
	mov	DWORD PTR [ebp-4], -858993460		; ccccccccH
	mov	DWORD PTR _this$[ebp], ecx
	mov	eax, DWORD PTR _this$[ebp]
	mov	DWORD PTR [eax], 0
	mov	eax, DWORD PTR _this$[ebp]
	mov	esp, ebp
	pop	ebp
	ret	0
??0_Container_base12@std@@QAE@XZ ENDP			; std::_Container_base12::_Container_base12
_TEXT	ENDS
; Function compile flags: /Odtp /RTCsu
; File C:\Program Files (x86)\Microsoft Visual Studio\2019\Community\VC\Tools\MSVC\14.23.28105\include\xmemory
;	COMDAT ??0_Container_proxy@std@@QAE@PAU_Container_base12@1@@Z
_TEXT	SEGMENT
_this$ = -4						; size = 4
__Mycont_$ = 8						; size = 4
??0_Container_proxy@std@@QAE@PAU_Container_base12@1@@Z PROC ; std::_Container_proxy::_Container_proxy, COMDAT
; _this$ = ecx

; 1167 :     _Container_proxy(_Container_base12* _Mycont_) noexcept : _Mycont(_Mycont_), _Myfirstiter(nullptr) {}

	push	ebp
	mov	ebp, esp
	push	ecx
	mov	DWORD PTR [ebp-4], -858993460		; ccccccccH
	mov	DWORD PTR _this$[ebp], ecx
	mov	eax, DWORD PTR _this$[ebp]
	mov	ecx, DWORD PTR __Mycont_$[ebp]
	mov	DWORD PTR [eax], ecx
	mov	edx, DWORD PTR _this$[ebp]
	mov	DWORD PTR [edx+4], 0
	mov	eax, DWORD PTR _this$[ebp]
	mov	esp, ebp
	pop	ebp
	ret	4
??0_Container_proxy@std@@QAE@PAU_Container_base12@1@@Z ENDP ; std::_Container_proxy::_Container_proxy
_TEXT	ENDS
; Function compile flags: /Odtp /RTCsu
; File C:\Program Files (x86)\Microsoft Visual Studio\2019\Community\VC\Tools\MSVC\14.23.28105\include\xmemory
;	COMDAT ?_Adjust_manually_vector_aligned@std@@YAXAAPAXAAI@Z
_TEXT	SEGMENT
__Back_shift$ = -16					; size = 4
__Min_back_shift$ = -12					; size = 4
__Ptr_container$ = -8					; size = 4
__Ptr_user$ = -4					; size = 4
__Ptr$ = 8						; size = 4
__Bytes$ = 12						; size = 4
?_Adjust_manually_vector_aligned@std@@YAXAAPAXAAI@Z PROC ; std::_Adjust_manually_vector_aligned, COMDAT

; 102  : inline void _Adjust_manually_vector_aligned(void*& _Ptr, size_t& _Bytes) {

	push	ebp
	mov	ebp, esp
	sub	esp, 16					; 00000010H
	mov	eax, -858993460				; ccccccccH
	mov	DWORD PTR [ebp-16], eax
	mov	DWORD PTR [ebp-12], eax
	mov	DWORD PTR [ebp-8], eax
	mov	DWORD PTR [ebp-4], eax

; 103  :     // adjust parameters from _Allocate_manually_vector_aligned to pass to operator delete
; 104  :     _Bytes += _Non_user_size;

	mov	eax, DWORD PTR __Bytes$[ebp]
	mov	ecx, DWORD PTR [eax]
	add	ecx, 39					; 00000027H
	mov	edx, DWORD PTR __Bytes$[ebp]
	mov	DWORD PTR [edx], ecx

; 105  : 
; 106  :     const uintptr_t* const _Ptr_user = reinterpret_cast<uintptr_t*>(_Ptr);

	mov	eax, DWORD PTR __Ptr$[ebp]
	mov	ecx, DWORD PTR [eax]
	mov	DWORD PTR __Ptr_user$[ebp], ecx

; 107  :     const uintptr_t _Ptr_container   = _Ptr_user[-1];

	mov	edx, 4
	imul	eax, edx, -1
	mov	ecx, DWORD PTR __Ptr_user$[ebp]
	mov	edx, DWORD PTR [ecx+eax]
	mov	DWORD PTR __Ptr_container$[ebp], edx
$LN4@Adjust_man:

; 108  : 
; 109  :     // If the following asserts, it likely means that we are performing
; 110  :     // an aligned delete on memory coming from an unaligned allocation.
; 111  :     _STL_ASSERT(_Ptr_user[-2] == _Big_allocation_sentinel, "invalid argument");

	mov	eax, 4
	imul	ecx, eax, -2
	mov	edx, DWORD PTR __Ptr_user$[ebp]
	cmp	DWORD PTR [edx+ecx], -84215046		; fafafafaH
	jne	SHORT $LN7@Adjust_man
	jmp	SHORT $LN2@Adjust_man
$LN7@Adjust_man:
	push	OFFSET ??_C@_0BB@FCMFBGOM@invalid?5argument@
	push	OFFSET ??_C@_02DKCKIIND@?$CFs@
	push	0
	push	111					; 0000006fH
	push	OFFSET ??_C@_0GI@FJIKDGOA@C?3?2Program?5Files?5?$CIx86?$CJ?2Microsof@
	push	2
	call	__CrtDbgReport
	add	esp, 24					; 00000018H
	cmp	eax, 1
	jne	SHORT $LN19@Adjust_man
	int	3
$LN19@Adjust_man:
	push	0
	push	111					; 0000006fH
	push	OFFSET ??_C@_1NA@CDBIFGMM@?$AAC?$AA?3?$AA?2?$AAP?$AAr?$AAo?$AAg?$AAr?$AAa?$AAm?$AA?5?$AAF?$AAi?$AAl?$AAe@
	push	OFFSET ??_C@_1EK@NIFDJFDG@?$AAs?$AAt?$AAd?$AA?3?$AA?3?$AA_?$AAA?$AAd?$AAj?$AAu?$AAs?$AAt?$AA_?$AAm?$AAa@
	push	OFFSET ??_C@_1CG@JNLFBNGN@?$AA?$CC?$AAi?$AAn?$AAv?$AAa?$AAl?$AAi?$AAd?$AA?5?$AAa?$AAr?$AAg?$AAu?$AAm?$AAe@
	call	__invalid_parameter
	add	esp, 20					; 00000014H
	xor	ecx, ecx
	jne	SHORT $LN7@Adjust_man
$LN2@Adjust_man:
	xor	edx, edx
	jne	SHORT $LN4@Adjust_man

; 112  : 
; 113  :     // Extra paranoia on aligned allocation/deallocation; ensure _Ptr_container is
; 114  :     // in range [_Min_back_shift, _Non_user_size]
; 115  : #ifdef _DEBUG
; 116  :     constexpr uintptr_t _Min_back_shift = 2 * sizeof(void*);

	mov	DWORD PTR __Min_back_shift$[ebp], 8

; 117  : #else // ^^^ _DEBUG ^^^ // vvv !_DEBUG vvv
; 118  :     constexpr uintptr_t _Min_back_shift = sizeof(void*);
; 119  : #endif // _DEBUG
; 120  :     const uintptr_t _Back_shift = reinterpret_cast<uintptr_t>(_Ptr) - _Ptr_container;

	mov	eax, DWORD PTR __Ptr$[ebp]
	mov	ecx, DWORD PTR [eax]
	sub	ecx, DWORD PTR __Ptr_container$[ebp]
	mov	DWORD PTR __Back_shift$[ebp], ecx
$LN10@Adjust_man:

; 121  :     _STL_VERIFY(_Back_shift >= _Min_back_shift && _Back_shift <= _Non_user_size, "invalid argument");

	cmp	DWORD PTR __Back_shift$[ebp], 8
	jb	SHORT $LN13@Adjust_man
	cmp	DWORD PTR __Back_shift$[ebp], 39	; 00000027H
	ja	SHORT $LN13@Adjust_man
	jmp	SHORT $LN8@Adjust_man
$LN13@Adjust_man:
	push	OFFSET ??_C@_0BB@FCMFBGOM@invalid?5argument@
	push	OFFSET ??_C@_02DKCKIIND@?$CFs@
	push	0
	push	121					; 00000079H
	push	OFFSET ??_C@_0GI@FJIKDGOA@C?3?2Program?5Files?5?$CIx86?$CJ?2Microsof@
	push	2
	call	__CrtDbgReport
	add	esp, 24					; 00000018H
	cmp	eax, 1
	jne	SHORT $LN20@Adjust_man
	int	3
$LN20@Adjust_man:
	push	0
	push	121					; 00000079H
	push	OFFSET ??_C@_1NA@CDBIFGMM@?$AAC?$AA?3?$AA?2?$AAP?$AAr?$AAo?$AAg?$AAr?$AAa?$AAm?$AA?5?$AAF?$AAi?$AAl?$AAe@
	push	OFFSET ??_C@_1EK@NIFDJFDG@?$AAs?$AAt?$AAd?$AA?3?$AA?3?$AA_?$AAA?$AAd?$AAj?$AAu?$AAs?$AAt?$AA_?$AAm?$AAa@
	push	OFFSET ??_C@_1CG@JNLFBNGN@?$AA?$CC?$AAi?$AAn?$AAv?$AAa?$AAl?$AAi?$AAd?$AA?5?$AAa?$AAr?$AAg?$AAu?$AAm?$AAe@
	call	__invalid_parameter
	add	esp, 20					; 00000014H
	xor	eax, eax
	jne	SHORT $LN13@Adjust_man
$LN8@Adjust_man:
	xor	ecx, ecx
	jne	SHORT $LN10@Adjust_man

; 122  :     _Ptr = reinterpret_cast<void*>(_Ptr_container);

	mov	edx, DWORD PTR __Ptr$[ebp]
	mov	eax, DWORD PTR __Ptr_container$[ebp]
	mov	DWORD PTR [edx], eax

; 123  : }

	add	esp, 16					; 00000010H
	cmp	ebp, esp
	call	__RTC_CheckEsp
	mov	esp, ebp
	pop	ebp
	ret	0
?_Adjust_manually_vector_aligned@std@@YAXAAPAXAAI@Z ENDP ; std::_Adjust_manually_vector_aligned
_TEXT	ENDS
; Function compile flags: /Odtp /RTCsu
; File C:\Program Files (x86)\Microsoft Visual Studio\2019\Community\VC\Tools\MSVC\14.23.28105\include\xmemory
;	COMDAT ?_Allocate@_Default_allocate_traits@std@@SAPAXI@Z
_TEXT	SEGMENT
__Bytes$ = 8						; size = 4
?_Allocate@_Default_allocate_traits@std@@SAPAXI@Z PROC	; std::_Default_allocate_traits::_Allocate, COMDAT

; 46   :     _DECLSPEC_ALLOCATOR static void* _Allocate(const size_t _Bytes) {

	push	ebp
	mov	ebp, esp

; 47   :         return ::operator new(_Bytes);

	mov	eax, DWORD PTR __Bytes$[ebp]
	push	eax
	call	??2@YAPAXI@Z				; operator new
	add	esp, 4

; 48   :     }

	cmp	ebp, esp
	call	__RTC_CheckEsp
	pop	ebp
	ret	0
?_Allocate@_Default_allocate_traits@std@@SAPAXI@Z ENDP	; std::_Default_allocate_traits::_Allocate
_TEXT	ENDS
; Function compile flags: /Odtp /RTCsu
; File C:\Program Files (x86)\Microsoft Visual Studio\2019\Community\VC\Tools\MSVC\14.23.28105\include\exception
;	COMDAT ?_Throw_bad_array_new_length@std@@YAXXZ
_TEXT	SEGMENT
$T1 = -12						; size = 12
?_Throw_bad_array_new_length@std@@YAXXZ PROC		; std::_Throw_bad_array_new_length, COMDAT

; 323  : [[noreturn]] inline void _Throw_bad_array_new_length() {

	push	ebp
	mov	ebp, esp
	sub	esp, 12					; 0000000cH
	mov	DWORD PTR [ebp-12], -858993460		; ccccccccH
	mov	DWORD PTR [ebp-8], -858993460		; ccccccccH
	mov	DWORD PTR [ebp-4], -858993460		; ccccccccH

; 324  :     _THROW(bad_array_new_length{});

	lea	ecx, DWORD PTR $T1[ebp]
	call	??0bad_array_new_length@std@@QAE@XZ	; std::bad_array_new_length::bad_array_new_length
	push	OFFSET __TI3?AVbad_array_new_length@std@@
	lea	eax, DWORD PTR $T1[ebp]
	push	eax
	call	__CxxThrowException@8
$LN2@Throw_bad_:

; 325  : }

	add	esp, 12					; 0000000cH
	cmp	ebp, esp
	call	__RTC_CheckEsp
	mov	esp, ebp
	pop	ebp
	ret	0
?_Throw_bad_array_new_length@std@@YAXXZ ENDP		; std::_Throw_bad_array_new_length
_TEXT	ENDS
; Function compile flags: /Odtp /RTCsu
;	COMDAT ??_Gbad_array_new_length@std@@UAEPAXI@Z
_TEXT	SEGMENT
_this$ = -4						; size = 4
___flags$ = 8						; size = 4
??_Gbad_array_new_length@std@@UAEPAXI@Z PROC		; std::bad_array_new_length::`scalar deleting destructor', COMDAT
; _this$ = ecx
	push	ebp
	mov	ebp, esp
	push	ecx
	mov	DWORD PTR [ebp-4], -858993460		; ccccccccH
	mov	DWORD PTR _this$[ebp], ecx
	mov	ecx, DWORD PTR _this$[ebp]
	call	??1bad_array_new_length@std@@UAE@XZ
	mov	eax, DWORD PTR ___flags$[ebp]
	and	eax, 1
	je	SHORT $LN2@scalar
	push	12					; 0000000cH
	mov	ecx, DWORD PTR _this$[ebp]
	push	ecx
	call	??3@YAXPAXI@Z				; operator delete
	add	esp, 8
$LN2@scalar:
	mov	eax, DWORD PTR _this$[ebp]
	add	esp, 4
	cmp	ebp, esp
	call	__RTC_CheckEsp
	mov	esp, ebp
	pop	ebp
	ret	4
??_Gbad_array_new_length@std@@UAEPAXI@Z ENDP		; std::bad_array_new_length::`scalar deleting destructor'
_TEXT	ENDS
; Function compile flags: /Odtp /RTCsu
;	COMDAT ??0bad_array_new_length@std@@QAE@ABV01@@Z
_TEXT	SEGMENT
_this$ = -4						; size = 4
___that$ = 8						; size = 4
??0bad_array_new_length@std@@QAE@ABV01@@Z PROC		; std::bad_array_new_length::bad_array_new_length, COMDAT
; _this$ = ecx
	push	ebp
	mov	ebp, esp
	push	ecx
	mov	DWORD PTR [ebp-4], -858993460		; ccccccccH
	mov	DWORD PTR _this$[ebp], ecx
	mov	eax, DWORD PTR ___that$[ebp]
	push	eax
	mov	ecx, DWORD PTR _this$[ebp]
	call	??0bad_alloc@std@@QAE@ABV01@@Z
	mov	ecx, DWORD PTR _this$[ebp]
	mov	DWORD PTR [ecx], OFFSET ??_7bad_array_new_length@std@@6B@
	mov	eax, DWORD PTR _this$[ebp]
	add	esp, 4
	cmp	ebp, esp
	call	__RTC_CheckEsp
	mov	esp, ebp
	pop	ebp
	ret	4
??0bad_array_new_length@std@@QAE@ABV01@@Z ENDP		; std::bad_array_new_length::bad_array_new_length
_TEXT	ENDS
; Function compile flags: /Odtp /RTCsu
;	COMDAT ??1bad_array_new_length@std@@UAE@XZ
_TEXT	SEGMENT
_this$ = -4						; size = 4
??1bad_array_new_length@std@@UAE@XZ PROC		; std::bad_array_new_length::~bad_array_new_length, COMDAT
; _this$ = ecx
	push	ebp
	mov	ebp, esp
	push	ecx
	mov	DWORD PTR [ebp-4], -858993460		; ccccccccH
	mov	DWORD PTR _this$[ebp], ecx
	mov	ecx, DWORD PTR _this$[ebp]
	call	??1bad_alloc@std@@UAE@XZ
	add	esp, 4
	cmp	ebp, esp
	call	__RTC_CheckEsp
	mov	esp, ebp
	pop	ebp
	ret	0
??1bad_array_new_length@std@@UAE@XZ ENDP		; std::bad_array_new_length::~bad_array_new_length
_TEXT	ENDS
; Function compile flags: /Odtp /RTCsu
; File C:\Program Files (x86)\Microsoft Visual Studio\2019\Community\VC\Tools\MSVC\14.23.28105\include\vcruntime_exception.h
;	COMDAT ??0bad_array_new_length@std@@QAE@XZ
_TEXT	SEGMENT
_this$ = -4						; size = 4
??0bad_array_new_length@std@@QAE@XZ PROC		; std::bad_array_new_length::bad_array_new_length, COMDAT
; _this$ = ecx

; 138  :     {

	push	ebp
	mov	ebp, esp
	push	ecx
	mov	DWORD PTR [ebp-4], -858993460		; ccccccccH
	mov	DWORD PTR _this$[ebp], ecx

; 137  :         : bad_alloc("bad array new length")

	push	OFFSET ??_C@_0BF@KINCDENJ@bad?5array?5new?5length@
	mov	ecx, DWORD PTR _this$[ebp]
	call	??0bad_alloc@std@@AAE@QBD@Z		; std::bad_alloc::bad_alloc

; 138  :     {

	mov	eax, DWORD PTR _this$[ebp]
	mov	DWORD PTR [eax], OFFSET ??_7bad_array_new_length@std@@6B@

; 139  :     }

	mov	eax, DWORD PTR _this$[ebp]
	add	esp, 4
	cmp	ebp, esp
	call	__RTC_CheckEsp
	mov	esp, ebp
	pop	ebp
	ret	0
??0bad_array_new_length@std@@QAE@XZ ENDP		; std::bad_array_new_length::bad_array_new_length
_TEXT	ENDS
; Function compile flags: /Odtp /RTCsu
;	COMDAT ??_Gbad_alloc@std@@UAEPAXI@Z
_TEXT	SEGMENT
_this$ = -4						; size = 4
___flags$ = 8						; size = 4
??_Gbad_alloc@std@@UAEPAXI@Z PROC			; std::bad_alloc::`scalar deleting destructor', COMDAT
; _this$ = ecx
	push	ebp
	mov	ebp, esp
	push	ecx
	mov	DWORD PTR [ebp-4], -858993460		; ccccccccH
	mov	DWORD PTR _this$[ebp], ecx
	mov	ecx, DWORD PTR _this$[ebp]
	call	??1bad_alloc@std@@UAE@XZ
	mov	eax, DWORD PTR ___flags$[ebp]
	and	eax, 1
	je	SHORT $LN2@scalar
	push	12					; 0000000cH
	mov	ecx, DWORD PTR _this$[ebp]
	push	ecx
	call	??3@YAXPAXI@Z				; operator delete
	add	esp, 8
$LN2@scalar:
	mov	eax, DWORD PTR _this$[ebp]
	add	esp, 4
	cmp	ebp, esp
	call	__RTC_CheckEsp
	mov	esp, ebp
	pop	ebp
	ret	4
??_Gbad_alloc@std@@UAEPAXI@Z ENDP			; std::bad_alloc::`scalar deleting destructor'
_TEXT	ENDS
; Function compile flags: /Odtp /RTCsu
;	COMDAT ??0bad_alloc@std@@QAE@ABV01@@Z
_TEXT	SEGMENT
_this$ = -4						; size = 4
___that$ = 8						; size = 4
??0bad_alloc@std@@QAE@ABV01@@Z PROC			; std::bad_alloc::bad_alloc, COMDAT
; _this$ = ecx
	push	ebp
	mov	ebp, esp
	push	ecx
	mov	DWORD PTR [ebp-4], -858993460		; ccccccccH
	mov	DWORD PTR _this$[ebp], ecx
	mov	eax, DWORD PTR ___that$[ebp]
	push	eax
	mov	ecx, DWORD PTR _this$[ebp]
	call	??0exception@std@@QAE@ABV01@@Z		; std::exception::exception
	mov	ecx, DWORD PTR _this$[ebp]
	mov	DWORD PTR [ecx], OFFSET ??_7bad_alloc@std@@6B@
	mov	eax, DWORD PTR _this$[ebp]
	add	esp, 4
	cmp	ebp, esp
	call	__RTC_CheckEsp
	mov	esp, ebp
	pop	ebp
	ret	4
??0bad_alloc@std@@QAE@ABV01@@Z ENDP			; std::bad_alloc::bad_alloc
_TEXT	ENDS
; Function compile flags: /Odtp /RTCsu
;	COMDAT ??1bad_alloc@std@@UAE@XZ
_TEXT	SEGMENT
_this$ = -4						; size = 4
??1bad_alloc@std@@UAE@XZ PROC				; std::bad_alloc::~bad_alloc, COMDAT
; _this$ = ecx
	push	ebp
	mov	ebp, esp
	push	ecx
	mov	DWORD PTR [ebp-4], -858993460		; ccccccccH
	mov	DWORD PTR _this$[ebp], ecx
	mov	ecx, DWORD PTR _this$[ebp]
	call	??1exception@std@@UAE@XZ		; std::exception::~exception
	add	esp, 4
	cmp	ebp, esp
	call	__RTC_CheckEsp
	mov	esp, ebp
	pop	ebp
	ret	0
??1bad_alloc@std@@UAE@XZ ENDP				; std::bad_alloc::~bad_alloc
_TEXT	ENDS
; Function compile flags: /Odtp /RTCsu
; File C:\Program Files (x86)\Microsoft Visual Studio\2019\Community\VC\Tools\MSVC\14.23.28105\include\vcruntime_exception.h
;	COMDAT ??0bad_alloc@std@@AAE@QBD@Z
_TEXT	SEGMENT
_this$ = -4						; size = 4
__Message$ = 8						; size = 4
??0bad_alloc@std@@AAE@QBD@Z PROC			; std::bad_alloc::bad_alloc, COMDAT
; _this$ = ecx

; 127  :     {

	push	ebp
	mov	ebp, esp
	push	ecx
	mov	DWORD PTR [ebp-4], -858993460		; ccccccccH
	mov	DWORD PTR _this$[ebp], ecx

; 126  :         : exception(_Message, 1)

	push	1
	mov	eax, DWORD PTR __Message$[ebp]
	push	eax
	mov	ecx, DWORD PTR _this$[ebp]
	call	??0exception@std@@QAE@QBDH@Z		; std::exception::exception

; 127  :     {

	mov	ecx, DWORD PTR _this$[ebp]
	mov	DWORD PTR [ecx], OFFSET ??_7bad_alloc@std@@6B@

; 128  :     }

	mov	eax, DWORD PTR _this$[ebp]
	add	esp, 4
	cmp	ebp, esp
	call	__RTC_CheckEsp
	mov	esp, ebp
	pop	ebp
	ret	4
??0bad_alloc@std@@AAE@QBD@Z ENDP			; std::bad_alloc::bad_alloc
_TEXT	ENDS
; Function compile flags: /Odtp /RTCsu
;	COMDAT ??_Gexception@std@@UAEPAXI@Z
_TEXT	SEGMENT
_this$ = -4						; size = 4
___flags$ = 8						; size = 4
??_Gexception@std@@UAEPAXI@Z PROC			; std::exception::`scalar deleting destructor', COMDAT
; _this$ = ecx
	push	ebp
	mov	ebp, esp
	push	ecx
	mov	DWORD PTR [ebp-4], -858993460		; ccccccccH
	mov	DWORD PTR _this$[ebp], ecx
	mov	ecx, DWORD PTR _this$[ebp]
	call	??1exception@std@@UAE@XZ		; std::exception::~exception
	mov	eax, DWORD PTR ___flags$[ebp]
	and	eax, 1
	je	SHORT $LN2@scalar
	push	12					; 0000000cH
	mov	ecx, DWORD PTR _this$[ebp]
	push	ecx
	call	??3@YAXPAXI@Z				; operator delete
	add	esp, 8
$LN2@scalar:
	mov	eax, DWORD PTR _this$[ebp]
	add	esp, 4
	cmp	ebp, esp
	call	__RTC_CheckEsp
	mov	esp, ebp
	pop	ebp
	ret	4
??_Gexception@std@@UAEPAXI@Z ENDP			; std::exception::`scalar deleting destructor'
_TEXT	ENDS
; Function compile flags: /Odtp /RTCsu
; File C:\Program Files (x86)\Microsoft Visual Studio\2019\Community\VC\Tools\MSVC\14.23.28105\include\vcruntime_exception.h
;	COMDAT ?what@exception@std@@UBEPBDXZ
_TEXT	SEGMENT
tv69 = -8						; size = 4
_this$ = -4						; size = 4
?what@exception@std@@UBEPBDXZ PROC			; std::exception::what, COMDAT
; _this$ = ecx

; 91   :     {

	push	ebp
	mov	ebp, esp
	sub	esp, 8
	mov	DWORD PTR [ebp-8], -858993460		; ccccccccH
	mov	DWORD PTR [ebp-4], -858993460		; ccccccccH
	mov	DWORD PTR _this$[ebp], ecx

; 92   :         return _Data._What ? _Data._What : "Unknown exception";

	mov	eax, DWORD PTR _this$[ebp]
	cmp	DWORD PTR [eax+4], 0
	je	SHORT $LN3@what
	mov	ecx, DWORD PTR _this$[ebp]
	mov	edx, DWORD PTR [ecx+4]
	mov	DWORD PTR tv69[ebp], edx
	jmp	SHORT $LN4@what
$LN3@what:
	mov	DWORD PTR tv69[ebp], OFFSET ??_C@_0BC@EOODALEL@Unknown?5exception@
$LN4@what:
	mov	eax, DWORD PTR tv69[ebp]

; 93   :     }

	mov	esp, ebp
	pop	ebp
	ret	0
?what@exception@std@@UBEPBDXZ ENDP			; std::exception::what
_TEXT	ENDS
; Function compile flags: /Odtp /RTCsu
; File C:\Program Files (x86)\Microsoft Visual Studio\2019\Community\VC\Tools\MSVC\14.23.28105\include\vcruntime_exception.h
;	COMDAT ??1exception@std@@UAE@XZ
_TEXT	SEGMENT
_this$ = -4						; size = 4
??1exception@std@@UAE@XZ PROC				; std::exception::~exception, COMDAT
; _this$ = ecx

; 86   :     {

	push	ebp
	mov	ebp, esp
	push	ecx
	mov	DWORD PTR [ebp-4], -858993460		; ccccccccH
	mov	DWORD PTR _this$[ebp], ecx
	mov	eax, DWORD PTR _this$[ebp]
	mov	DWORD PTR [eax], OFFSET ??_7exception@std@@6B@

; 87   :         __std_exception_destroy(&_Data);

	mov	ecx, DWORD PTR _this$[ebp]
	add	ecx, 4
	push	ecx
	call	___std_exception_destroy
	add	esp, 4

; 88   :     }

	add	esp, 4
	cmp	ebp, esp
	call	__RTC_CheckEsp
	mov	esp, ebp
	pop	ebp
	ret	0
??1exception@std@@UAE@XZ ENDP				; std::exception::~exception
_TEXT	ENDS
; Function compile flags: /Odtp /RTCsu
; File C:\Program Files (x86)\Microsoft Visual Studio\2019\Community\VC\Tools\MSVC\14.23.28105\include\vcruntime_exception.h
;	COMDAT ??0exception@std@@QAE@ABV01@@Z
_TEXT	SEGMENT
_this$ = -4						; size = 4
__Other$ = 8						; size = 4
??0exception@std@@QAE@ABV01@@Z PROC			; std::exception::exception, COMDAT
; _this$ = ecx

; 69   :     {

	push	ebp
	mov	ebp, esp
	push	ecx
	mov	DWORD PTR [ebp-4], -858993460		; ccccccccH
	mov	DWORD PTR _this$[ebp], ecx
	mov	eax, DWORD PTR _this$[ebp]
	mov	DWORD PTR [eax], OFFSET ??_7exception@std@@6B@

; 68   :         : _Data()

	xor	ecx, ecx
	mov	edx, DWORD PTR _this$[ebp]
	add	edx, 4
	mov	DWORD PTR [edx], ecx
	mov	DWORD PTR [edx+4], ecx

; 70   :         __std_exception_copy(&_Other._Data, &_Data);

	mov	eax, DWORD PTR _this$[ebp]
	add	eax, 4
	push	eax
	mov	ecx, DWORD PTR __Other$[ebp]
	add	ecx, 4
	push	ecx
	call	___std_exception_copy
	add	esp, 8

; 71   :     }

	mov	eax, DWORD PTR _this$[ebp]
	add	esp, 4
	cmp	ebp, esp
	call	__RTC_CheckEsp
	mov	esp, ebp
	pop	ebp
	ret	4
??0exception@std@@QAE@ABV01@@Z ENDP			; std::exception::exception
_TEXT	ENDS
; Function compile flags: /Odtp /RTCsu
; File C:\Program Files (x86)\Microsoft Visual Studio\2019\Community\VC\Tools\MSVC\14.23.28105\include\vcruntime_exception.h
;	COMDAT ??0exception@std@@QAE@QBDH@Z
_TEXT	SEGMENT
_this$ = -4						; size = 4
__Message$ = 8						; size = 4
___formal$ = 12						; size = 4
??0exception@std@@QAE@QBDH@Z PROC			; std::exception::exception, COMDAT
; _this$ = ecx

; 63   :     {

	push	ebp
	mov	ebp, esp
	push	ecx
	mov	DWORD PTR [ebp-4], -858993460		; ccccccccH
	mov	DWORD PTR _this$[ebp], ecx
	mov	eax, DWORD PTR _this$[ebp]
	mov	DWORD PTR [eax], OFFSET ??_7exception@std@@6B@

; 62   :         : _Data()

	xor	ecx, ecx
	mov	edx, DWORD PTR _this$[ebp]
	add	edx, 4
	mov	DWORD PTR [edx], ecx
	mov	DWORD PTR [edx+4], ecx

; 64   :         _Data._What = _Message;

	mov	eax, DWORD PTR _this$[ebp]
	mov	ecx, DWORD PTR __Message$[ebp]
	mov	DWORD PTR [eax+4], ecx

; 65   :     }

	mov	eax, DWORD PTR _this$[ebp]
	mov	esp, ebp
	pop	ebp
	ret	8
??0exception@std@@QAE@QBDH@Z ENDP			; std::exception::exception
_TEXT	ENDS
; Function compile flags: /Odtp /RTCsu
; File C:\Program Files (x86)\Microsoft Visual Studio\2019\Community\VC\Tools\MSVC\14.23.28105\include\vcruntime_exception.h
;	COMDAT ??0exception@std@@QAE@QBD@Z
_TEXT	SEGMENT
__InitData$ = -16					; size = 8
_this$ = -4						; size = 4
__Message$ = 8						; size = 4
??0exception@std@@QAE@QBD@Z PROC			; std::exception::exception, COMDAT
; _this$ = ecx

; 56   :     {

	push	ebp
	mov	ebp, esp
	sub	esp, 20					; 00000014H
	mov	eax, -858993460				; ccccccccH
	mov	DWORD PTR [ebp-20], eax
	mov	DWORD PTR [ebp-16], eax
	mov	DWORD PTR [ebp-12], eax
	mov	DWORD PTR [ebp-8], eax
	mov	DWORD PTR [ebp-4], eax
	mov	DWORD PTR _this$[ebp], ecx
	mov	eax, DWORD PTR _this$[ebp]
	mov	DWORD PTR [eax], OFFSET ??_7exception@std@@6B@

; 55   :         : _Data()

	xor	ecx, ecx
	mov	edx, DWORD PTR _this$[ebp]
	add	edx, 4
	mov	DWORD PTR [edx], ecx
	mov	DWORD PTR [edx+4], ecx

; 57   :         __std_exception_data _InitData = { _Message, true };

	mov	eax, DWORD PTR __Message$[ebp]
	mov	DWORD PTR __InitData$[ebp], eax
	mov	BYTE PTR __InitData$[ebp+4], 1

; 58   :         __std_exception_copy(&_InitData, &_Data);

	mov	ecx, DWORD PTR _this$[ebp]
	add	ecx, 4
	push	ecx
	lea	edx, DWORD PTR __InitData$[ebp]
	push	edx
	call	___std_exception_copy
	add	esp, 8

; 59   :     }

	mov	eax, DWORD PTR _this$[ebp]
	push	edx
	mov	ecx, ebp
	push	eax
	lea	edx, DWORD PTR $LN5@exception
	call	@_RTC_CheckStackVars@8
	pop	eax
	pop	edx
	add	esp, 20					; 00000014H
	cmp	ebp, esp
	call	__RTC_CheckEsp
	mov	esp, ebp
	pop	ebp
	ret	4
$LN5@exception:
	DD	1
	DD	$LN4@exception
$LN4@exception:
	DD	-16					; fffffff0H
	DD	8
	DD	$LN3@exception
$LN3@exception:
	DB	95					; 0000005fH
	DB	73					; 00000049H
	DB	110					; 0000006eH
	DB	105					; 00000069H
	DB	116					; 00000074H
	DB	68					; 00000044H
	DB	97					; 00000061H
	DB	116					; 00000074H
	DB	97					; 00000061H
	DB	0
??0exception@std@@QAE@QBD@Z ENDP			; std::exception::exception
_TEXT	ENDS
; Function compile flags: /Odtp /RTCsu
; File C:\Program Files (x86)\Microsoft Visual Studio\2019\Community\VC\Tools\MSVC\14.23.28105\include\limits
;	COMDAT ?max@?$numeric_limits@N@std@@SANXZ
_TEXT	SEGMENT
?max@?$numeric_limits@N@std@@SANXZ PROC			; std::numeric_limits<double>::max, COMDAT

; 921  :     _NODISCARD static constexpr double(max)() noexcept { // return maximum value

	push	ebp
	mov	ebp, esp

; 922  :         return DBL_MAX;

	fld	QWORD PTR __real@7fefffffffffffff

; 923  :     }

	pop	ebp
	ret	0
?max@?$numeric_limits@N@std@@SANXZ ENDP			; std::numeric_limits<double>::max
_TEXT	ENDS
; Function compile flags: /Odtp /RTCsu
; File C:\Program Files (x86)\Microsoft Visual Studio\2019\Community\VC\Tools\MSVC\14.23.28105\include\limits
;	COMDAT ?min@?$numeric_limits@N@std@@SANXZ
_TEXT	SEGMENT
?min@?$numeric_limits@N@std@@SANXZ PROC			; std::numeric_limits<double>::min, COMDAT

; 917  :     _NODISCARD static constexpr double(min)() noexcept { // return minimum value

	push	ebp
	mov	ebp, esp

; 918  :         return DBL_MIN;

	fld	QWORD PTR __real@0010000000000000

; 919  :     }

	pop	ebp
	ret	0
?min@?$numeric_limits@N@std@@SANXZ ENDP			; std::numeric_limits<double>::min
_TEXT	ENDS
; Function compile flags: /Odtp /RTCsu
; File C:\Program Files (x86)\Microsoft Visual Studio\2019\Community\VC\Tools\MSVC\14.23.28105\include\limits
;	COMDAT ?max@?$numeric_limits@M@std@@SAMXZ
_TEXT	SEGMENT
?max@?$numeric_limits@M@std@@SAMXZ PROC			; std::numeric_limits<float>::max, COMDAT

; 872  :     _NODISCARD static constexpr float(max)() noexcept { // return maximum value

	push	ebp
	mov	ebp, esp

; 873  :         return FLT_MAX;

	fld	DWORD PTR __real@7f7fffff

; 874  :     }

	pop	ebp
	ret	0
?max@?$numeric_limits@M@std@@SAMXZ ENDP			; std::numeric_limits<float>::max
_TEXT	ENDS
; Function compile flags: /Odtp /RTCsu
; File C:\Program Files (x86)\Microsoft Visual Studio\2019\Community\VC\Tools\MSVC\14.23.28105\include\limits
;	COMDAT ?min@?$numeric_limits@M@std@@SAMXZ
_TEXT	SEGMENT
?min@?$numeric_limits@M@std@@SAMXZ PROC			; std::numeric_limits<float>::min, COMDAT

; 868  :     _NODISCARD static constexpr float(min)() noexcept { // return minimum value

	push	ebp
	mov	ebp, esp

; 869  :         return FLT_MIN;

	fld	DWORD PTR __real@00800000

; 870  :     }

	pop	ebp
	ret	0
?min@?$numeric_limits@M@std@@SAMXZ ENDP			; std::numeric_limits<float>::min
_TEXT	ENDS
; Function compile flags: /Odtp /RTCsu
; File C:\Program Files (x86)\Microsoft Visual Studio\2019\Community\VC\Tools\MSVC\14.23.28105\include\limits
;	COMDAT ?max@?$numeric_limits@H@std@@SAHXZ
_TEXT	SEGMENT
?max@?$numeric_limits@H@std@@SAHXZ PROC			; std::numeric_limits<int>::max, COMDAT

; 553  :     _NODISCARD static constexpr int(max)() noexcept { // return maximum value

	push	ebp
	mov	ebp, esp

; 554  :         return INT_MAX;

	mov	eax, 2147483647				; 7fffffffH

; 555  :     }

	pop	ebp
	ret	0
?max@?$numeric_limits@H@std@@SAHXZ ENDP			; std::numeric_limits<int>::max
_TEXT	ENDS
; Function compile flags: /Odtp /RTCsu
; File C:\Program Files (x86)\Microsoft Visual Studio\2019\Community\VC\Tools\MSVC\14.23.28105\include\vcruntime_new.h
;	COMDAT ??2@YAPAXIPAX@Z
_TEXT	SEGMENT
__Size$ = 8						; size = 4
__Where$ = 12						; size = 4
??2@YAPAXIPAX@Z PROC					; operator new, COMDAT

; 168  :     {

	push	ebp
	mov	ebp, esp

; 169  :         (void)_Size;
; 170  :         return _Where;

	mov	eax, DWORD PTR __Where$[ebp]

; 171  :     }

	pop	ebp
	ret	0
??2@YAPAXIPAX@Z ENDP					; operator new
_TEXT	ENDS
; Function compile flags: /Odtp /RTCsu
; File D:\Réseau neuronnes - Projet Raven\Réseau\solution_lab_apprentissage_a_partir_bot\solution_lab_apprentissage_a_partir_bot\Buckland_Chapter7 to 10_Raven_apprentissage\CData.cpp
;	COMDAT ?__empty_global_delete@@YAXPAXI@Z
_TEXT	SEGMENT
___formal$ = 8						; size = 4
___formal$ = 12						; size = 4
?__empty_global_delete@@YAXPAXI@Z PROC			; __empty_global_delete, COMDAT

	push	ebp
	mov	ebp, esp
	pop	ebp
	ret	0
?__empty_global_delete@@YAXPAXI@Z ENDP			; __empty_global_delete
_TEXT	ENDS
; Function compile flags: /Odtp /RTCsu
; File D:\Réseau neuronnes - Projet Raven\Réseau\solution_lab_apprentissage_a_partir_bot\solution_lab_apprentissage_a_partir_bot\Buckland_Chapter7 to 10_Raven_apprentissage\CData.cpp
;	COMDAT ?__empty_global_delete@@YAXPAX@Z
_TEXT	SEGMENT
___formal$ = 8						; size = 4
?__empty_global_delete@@YAXPAX@Z PROC			; __empty_global_delete, COMDAT

	push	ebp
	mov	ebp, esp
	pop	ebp
	ret	0
?__empty_global_delete@@YAXPAX@Z ENDP			; __empty_global_delete
_TEXT	ENDS
END
